Archive member included because of file (symbol)

c:/program files (x86)/microchip/xc32/v2.20/bin/bin/../../lib/gcc/pic32mx/4.8.3/../../../../pic32mx/lib/fpu64\libpic32.a(default-bootstrap-exception-handler.o)
                              C:\Users\Madison\AppData\Local\Temp\ccasagLp.o (_bootstrap_exception_handler)
c:/program files (x86)/microchip/xc32/v2.20/bin/bin/../../lib/gcc/pic32mx/4.8.3/../../../../pic32mx/lib/fpu64\libpic32.a(default-on-reset.o)
                              C:\Users\Madison\AppData\Local\Temp\ccasagLp.o (_on_reset)
c:/program files (x86)/microchip/xc32/v2.20/bin/bin/../../lib/gcc/pic32mx/4.8.3/../../../../pic32mx/lib/fpu64\libpic32.a(default-on-bootstrap.o)
                              C:\Users\Madison\AppData\Local\Temp\ccasagLp.o (_on_bootstrap)
c:/program files (x86)/microchip/xc32/v2.20/bin/bin/../../lib/gcc/pic32mx/4.8.3/../../../../pic32mx/lib/fpu64\libpic32.a(default-nmi-handler.o)
                              C:\Users\Madison\AppData\Local\Temp\ccasagLp.o (_nmi_handler)
c:/program files (x86)/microchip/xc32/v2.20/bin/bin/../../lib/gcc/pic32mx/4.8.3/../../../../pic32mx/lib/fpu64\libpic32.a(pic32_data_init.o)
                              C:\Users\Madison\AppData\Local\Temp\ccasagLp.o (__pic32_data_init)
c:/program files (x86)/microchip/xc32/v2.20/bin/bin/../../lib/gcc/pic32mx/4.8.3/../../../../pic32mx/lib/fpu64\libpic32.a(pic32_init_cache.o)
                              C:\Users\Madison\AppData\Local\Temp\ccasagLp.o (__pic32_init_cache)
c:/program files (x86)/microchip/xc32/v2.20/bin/bin/../../lib/gcc/pic32mx/4.8.3/../../../../pic32mx/lib/fpu64\libpic32.a(pic32_init_tlb_ebi_sqi.o)
                              C:\Users\Madison\AppData\Local\Temp\ccasagLp.o (__pic32_tlb_init_ebi_sqi)
c:/program files (x86)/microchip/xc32/v2.20/bin/bin/../../lib/gcc/pic32mx/4.8.3/../../../../pic32mx/lib/fpu64\libpic32.a(general-exception.o)
                              C:\Users\Madison\AppData\Local\Temp\ccasagLp.o (_general_exception_context)
c:/program files (x86)/microchip/xc32/v2.20/bin/bin/../../lib/gcc/pic32mx/4.8.3/../../../../pic32mx/lib/fpu64\libpic32.a(cache-err-exception.o)
                              C:\Users\Madison\AppData\Local\Temp\ccasagLp.o (_cache_err_exception_context)
c:/program files (x86)/microchip/xc32/v2.20/bin/bin/../../lib/gcc/pic32mx/4.8.3/../../../../pic32mx/lib/fpu64\libpic32.a(simple-tlb-refill-exception.o)
                              C:\Users\Madison\AppData\Local\Temp\ccasagLp.o (_simple_tlb_refill_exception_context)
c:/program files (x86)/microchip/xc32/v2.20/bin/bin/../../lib/gcc/pic32mx/4.8.3/../../../../pic32mx/lib/fpu64\libpic32.a(defaultinterrupt.o)
                              C:\Users\Madison\AppData\Local\Temp\ccOKe3k9.o (_DefaultInterrupt)
c:/program files (x86)/microchip/xc32/v2.20/bin/bin/../../lib/gcc/pic32mx/4.8.3/../../../../pic32mx/lib/fpu64\libpic32.a(default-cache-err-exception-handler.o)
                              c:/program files (x86)/microchip/xc32/v2.20/bin/bin/../../lib/gcc/pic32mx/4.8.3/../../../../pic32mx/lib/fpu64\libpic32.a(cache-err-exception.o) (_cache_err_exception_handler)
c:/program files (x86)/microchip/xc32/v2.20/bin/bin/../../lib/gcc/pic32mx/4.8.3/../../../../pic32mx/lib/fpu64\libpic32.a(default-simple-tlb-refill-exception-handler.o)
                              c:/program files (x86)/microchip/xc32/v2.20/bin/bin/../../lib/gcc/pic32mx/4.8.3/../../../../pic32mx/lib/fpu64\libpic32.a(simple-tlb-refill-exception.o) (_simple_tlb_refill_exception_handler)
c:/program files (x86)/microchip/xc32/v2.20/bin/bin/../../lib/gcc/pic32mx/4.8.3/../../../../pic32mx/lib/fpu64\libc.a(puts.o)
                              build/FFT/production/_ext/1360937237/FFT.o (puts)
c:/program files (x86)/microchip/xc32/v2.20/bin/bin/../../lib/gcc/pic32mx/4.8.3/../../../../pic32mx/lib/fpu64\libc.a(printf_cdnopsuxX.eo)
                              build/FFT/production/_ext/1272119167/exceptions.o (_printf_cdnopsuxX)
c:/program files (x86)/microchip/xc32/v2.20/bin/bin/../../lib/gcc/pic32mx/4.8.3/../../../../pic32mx/lib/fpu64\libc.a(printf_cdnopuxX.eo)
                              build/FFT/production/_ext/1360937237/FFT.o (_printf_cdnopuxX)
c:/program files (x86)/microchip/xc32/v2.20/bin/bin/../../lib/gcc/pic32mx/4.8.3/../../../../pic32mx/lib/fpu64\libc.a(_iob.o)
                              c:/program files (x86)/microchip/xc32/v2.20/bin/bin/../../lib/gcc/pic32mx/4.8.3/../../../../pic32mx/lib/fpu64\libc.a(puts.o) (_iob)
c:/program files (x86)/microchip/xc32/v2.20/bin/bin/../../lib/gcc/pic32mx/4.8.3/../../../../pic32mx/lib/fpu64\libc.a(_fputc_simple.o)
                              c:/program files (x86)/microchip/xc32/v2.20/bin/bin/../../lib/gcc/pic32mx/4.8.3/../../../../pic32mx/lib/fpu64\libc.a(puts.o) (fputc)
c:/program files (x86)/microchip/xc32/v2.20/bin/bin/../../lib/gcc/pic32mx/4.8.3/../../../../pic32mx/lib/fpu64\libc.a(doprnt_cdnopsuxX.eo)
                              c:/program files (x86)/microchip/xc32/v2.20/bin/bin/../../lib/gcc/pic32mx/4.8.3/../../../../pic32mx/lib/fpu64\libc.a(printf_cdnopsuxX.eo) (_vfprintf_cdnopsuxX)
c:/program files (x86)/microchip/xc32/v2.20/bin/bin/../../lib/gcc/pic32mx/4.8.3/../../../../pic32mx/lib/fpu64\libc.a(doprnt_cdnopuxX.eo)
                              c:/program files (x86)/microchip/xc32/v2.20/bin/bin/../../lib/gcc/pic32mx/4.8.3/../../../../pic32mx/lib/fpu64\libc.a(printf_cdnopuxX.eo) (_vfprintf_cdnopuxX)
c:/program files (x86)/microchip/xc32/v2.20/bin/bin/../../lib/gcc/pic32mx/4.8.3/../../../../pic32mx/lib/fpu64\libc.a(_flsbuf_simple.o)
                              c:/program files (x86)/microchip/xc32/v2.20/bin/bin/../../lib/gcc/pic32mx/4.8.3/../../../../pic32mx/lib/fpu64\libc.a(_fputc_simple.o) (_flsbuf)
c:/program files (x86)/microchip/xc32/v2.20/bin/bin/../../lib/gcc/pic32mx/4.8.3/../../../../pic32mx/lib/fpu64\libc.a(ctype.o)
                              c:/program files (x86)/microchip/xc32/v2.20/bin/bin/../../lib/gcc/pic32mx/4.8.3/../../../../pic32mx/lib/fpu64\libc.a(doprnt_cdnopsuxX.eo) (_ctype)
c:/program files (x86)/microchip/xc32/v2.20/bin/bin/../../lib/gcc/pic32mx/4.8.3/../../../../pic32mx/lib/fpu64\libmfd.a(w_pow.o)
                              build/FFT/production/_ext/1360937237/FFT.o (_powx)
c:/program files (x86)/microchip/xc32/v2.20/bin/bin/../../lib/gcc/pic32mx/4.8.3/../../../../pic32mx/lib/fpu64\libmfd.a(pic32_w_sqrt.o)
                              build/FFT/production/_ext/1360937237/FFT.o (_sqrtx)
c:/program files (x86)/microchip/xc32/v2.20/bin/bin/../../lib/gcc/pic32mx/4.8.3/../../../../pic32mx/lib/fpu64\libmfd.a(sqrtfd.o)
                              c:/program files (x86)/microchip/xc32/v2.20/bin/bin/../../lib/gcc/pic32mx/4.8.3/../../../../pic32mx/lib/fpu64\libmfd.a(pic32_w_sqrt.o) (_sqrtfd)
c:/program files (x86)/microchip/xc32/v2.20/bin/bin/../../lib/gcc/pic32mx/4.8.3/../../../../pic32mx/lib/fpu64\libmfd.a(e_pow.o)
                              c:/program files (x86)/microchip/xc32/v2.20/bin/bin/../../lib/gcc/pic32mx/4.8.3/../../../../pic32mx/lib/fpu64\libmfd.a(w_pow.o) (__ieee754_pow)
c:/program files (x86)/microchip/xc32/v2.20/bin/bin/../../lib/gcc/pic32mx/4.8.3/../../../../pic32mx/lib/fpu64\libmfd.a(k_standard.o)
                              c:/program files (x86)/microchip/xc32/v2.20/bin/bin/../../lib/gcc/pic32mx/4.8.3/../../../../pic32mx/lib/fpu64\libmfd.a(w_pow.o) (__kernel_standard)
c:/program files (x86)/microchip/xc32/v2.20/bin/bin/../../lib/gcc/pic32mx/4.8.3/../../../../pic32mx/lib/fpu64\libmfd.a(s_rint.o)
                              c:/program files (x86)/microchip/xc32/v2.20/bin/bin/../../lib/gcc/pic32mx/4.8.3/../../../../pic32mx/lib/fpu64\libmfd.a(k_standard.o) (rint)
c:/program files (x86)/microchip/xc32/v2.20/bin/bin/../../lib/gcc/pic32mx/4.8.3/../../../../pic32mx/lib/fpu64\libmfd.a(s_scalbn.o)
                              c:/program files (x86)/microchip/xc32/v2.20/bin/bin/../../lib/gcc/pic32mx/4.8.3/../../../../pic32mx/lib/fpu64\libmfd.a(e_pow.o) (scalbn)
c:/program files (x86)/microchip/xc32/v2.20/bin/bin/../../lib/gcc/pic32mx/4.8.3/fpu64\libgcc.a(_udivdi3.o)
                              c:/program files (x86)/microchip/xc32/v2.20/bin/bin/../../lib/gcc/pic32mx/4.8.3/../../../../pic32mx/lib/fpu64\libc.a(doprnt_cdnopsuxX.eo) (__udivdi3)
c:/program files (x86)/microchip/xc32/v2.20/bin/bin/../../lib/gcc/pic32mx/4.8.3/fpu64\libgcc.a(_umoddi3.o)
                              c:/program files (x86)/microchip/xc32/v2.20/bin/bin/../../lib/gcc/pic32mx/4.8.3/../../../../pic32mx/lib/fpu64\libc.a(doprnt_cdnopsuxX.eo) (__umoddi3)
c:/program files (x86)/microchip/xc32/v2.20/bin/bin/../../lib/gcc/pic32mx/4.8.3/../../../../pic32mx/lib/fpu64\libpic32.a(write.o)
                              c:/program files (x86)/microchip/xc32/v2.20/bin/bin/../../lib/gcc/pic32mx/4.8.3/../../../../pic32mx/lib/fpu64\libc.a(_fputc_simple.o) (write)
c:/program files (x86)/microchip/xc32/v2.20/bin/bin/../../lib/gcc/pic32mx/4.8.3/../../../../pic32mx/lib/fpu64\libpic32.a(errno.o)
                              c:/program files (x86)/microchip/xc32/v2.20/bin/bin/../../lib/gcc/pic32mx/4.8.3/../../../../pic32mx/lib/fpu64\libmfd.a(sqrtfd.o) (errno)

Allocating common symbols
Common symbol       size              file

vReal               0x1000            build/FFT/production/_ext/1360937237/ADCGather.o
_samples            0x2               build/FFT/production/_ext/1360937237/FFT.o
vRealFilt           0x3000            build/FFT/production/_ext/1360937237/FFT.o
appData             0x4               build/FFT/production/_ext/1360937237/app.o
sysObj              0x4               build/FFT/production/_ext/1272119167/initialization.o
microseconds        0x4               build/FFT/production/_ext/1360937237/FFT.o
USART_0_Handle      0x4               build/FFT/production/_ext/1360937237/UART.o
vRealSmoother       0x1000            build/FFT/production/_ext/1360937237/FFT.o
myAppObj            0x1               build/FFT/production/_ext/1360937237/UART.o
vImag               0x1000            build/FFT/production/_ext/1360937237/ADCGather.o
uart1Obj            0x30              build/FFT/production/_ext/2109807859/plib_uart1.o
pixelData           0x3e8             build/FFT/production/_ext/1360937237/neopixel.o

Microchip PIC32 Memory-Usage Report

kseg0 Program-Memory Usage
section                    address  length [bytes]      (dec)  Description
-------                 ----------  -------------------------  -----------
.simple_tlb_refill_excp 0x9d000000           0x10          16   
.text.UART1_RX_Interrup 0x9d000010           0xec         236   
.cache_err_excpt        0x9d000100           0x10          16   
.text.testNEO           0x9d000110           0x6c         108   
.app_excpt              0x9d000180           0x10          16  General-Exception 
.text.APP_Tasks         0x9d000190           0x60          96   
.text.UART1_ReadIsBusy  0x9d0001f0            0xc          12   
.vectors                0x9d000200           0x70         112   
.text._vfprintf_cdnopsu 0x9d000270          0xc8c        3212   
.dinit                  0x9d000efc          0x540        1344   
.text                   0x9d00143c          0x8bc        2236  App's exec code 
.text.TIMER_2_Handler   0x9d001cf8          0x250         592   
.text.TIMER_3_Handler   0x9d001f48          0x250         592   
.text.UART1_FAULT_Handl 0x9d002198          0x250         592   
.text.UART1_RX_Handler  0x9d0023e8          0x250         592   
.text.UART1_TX_Handler  0x9d002638          0x250         592   
.text._DRV_USART_Buffer 0x9d002888          0x1c8         456   
.text.DRV_USART_Initial 0x9d002a50          0x194         404   
.rodata                 0x9d002be4          0x158         344  Read-only const 
.text.UART1_SerialSetup 0x9d002d3c          0x144         324   
.text.fputc             0x9d002e80          0x144         324   
.text._flsbuf           0x9d002fc4          0x12c         300   
.text.ADCHS_Initialize  0x9d0030f0          0x114         276   
.text.TMR2InterruptCall 0x9d003204          0x10c         268   
.rodata                 0x9d003310          0x104         260  Read-only const 
.text.GPIO_Initialize   0x9d003414           0xe8         232   
.text.CLK_Initialize    0x9d0034fc           0xe0         224   
.text.general_exception 0x9d0035dc           0xdc         220   
.text.UART1_TX_Interrup 0x9d0036b8           0xd8         216   
.text._cache_err_except 0x9d003790           0xd8         216   
.text.simple_tlb_refill 0x9d003868           0xd8         216   
.rodata                 0x9d003940           0xd0         208  Read-only const 
.text.SYS_Initialize    0x9d003a10           0xc4         196   
.rodata                 0x9d003ad4           0xc0         192  Read-only const 
.tlb.__pic32_tlb_init_e 0x9d003b94           0xbc         188   
.text.setupNeopixel     0x9d003c50           0xac         172   
.text.write             0x9d003cfc           0x9c         156   
.text.UART1_ErrorGet    0x9d003d98           0x88         136   
.text.UART1_Initialize  0x9d003e20           0x84         132   
.text                   0x9d003ea4           0x84         132  App's exec code 
.text.UART1_Read        0x9d003f28           0x80         128   
.text.UART1_Write       0x9d003fa8           0x7c         124   
.text._DRV_USART_ReadSu 0x9d004024           0x74         116   
.text._DRV_USART_WriteS 0x9d004098           0x74         116   
.text._DRV_USART_RX_PLI 0x9d00410c           0x54          84   
.text.main_entry        0x9d004160           0x54          84   
.text.UART1_FAULT_Inter 0x9d0041b4           0x4c          76   
.text._general_exceptio 0x9d004200           0x48          72   
.text._bootstrap_except 0x9d004248           0x48          72   
.text._cache_err_except 0x9d004290           0x48          72   
.text._simple_tlb_refil 0x9d0042d8           0x48          72   
.text.EVIC_Initialize   0x9d004320           0x44          68   
.text                   0x9d004364           0x44          68  App's exec code 
.text.TIMER_2_Interrupt 0x9d0043a8           0x40          64   
.text.TIMER_3_Interrupt 0x9d0043e8           0x40          64   
.text._printf_cdnopsuxX 0x9d004428           0x40          64   
.text.TMR2_Initialize   0x9d004468           0x3c          60   
.text.TMR3_Initialize   0x9d0044a4           0x3c          60   
.text._DRV_USART_Remove 0x9d0044e0           0x38          56   
.text.updateNeoData     0x9d004518           0x2c          44   
.text._mon_putc         0x9d004544           0x2c          44   
.text.OCMP6_Initialize  0x9d004570           0x28          40   
.text.OCMP4_Initialize  0x9d004598           0x28          40   
.text.OCMP2_Initialize  0x9d0045c0           0x28          40   
.text.OCMP3_Initialize  0x9d0045e8           0x28          40   
.text.main              0x9d004610           0x20          32   
.text._DRV_USART_TX_PLI 0x9d004630           0x20          32   
.text.APP_Initialize    0x9d004650           0x1c          28   
.text.SYS_Tasks         0x9d00466c           0x1c          28   
.text                   0x9d004688           0x18          24  App's exec code 
.text.OCMP6_Enable      0x9d0046a0           0x14          20   
.text.OCMP4_Enable      0x9d0046b4           0x14          20   
.text.OCMP2_Enable      0x9d0046c8           0x14          20   
.text.OCMP2_Disable     0x9d0046dc           0x14          20   
.text.OCMP3_Enable      0x9d0046f0           0x14          20   
.text.UART1_ReadCallbac 0x9d004704           0x14          20   
.text.UART1_WriteCallba 0x9d004718           0x14          20   
.text.TMR2_Start        0x9d00472c           0x14          20   
.text.TMR2_Stop         0x9d004740           0x14          20   
.text.TMR2_InterruptEna 0x9d004754           0x14          20   
.text.UART1_ReadCountGe 0x9d004768            0xc          12   
.text.UART1_WriteIsBusy 0x9d004774            0xc          12   
.text.UART1_WriteCountG 0x9d004780            0xc          12   
.text.TMR2_CallbackRegi 0x9d00478c            0xc          12   
.text.setFFTUpdate      0x9d004798            0x8           8   
.text.SYS_DMA_Addressin 0x9d0047a0            0x8           8   
.text.SYS_DMA_DataWidth 0x9d0047a8            0x8           8   
.text.SYS_DMA_ChannelTr 0x9d0047b0            0x8           8   
.text._on_reset         0x9d0047b8            0x8           8   
.text._on_bootstrap     0x9d0047c0            0x8           8   
      Total kseg0_program_mem used  :      0x47bc       18364  0.9% of 0x200000

kseg0 Boot-Memory Usage
section                    address  length [bytes]      (dec)  Description
-------                 ----------  -------------------------  -----------
         Total kseg0_boot_mem used  :           0           0  

kseg1 Boot-Memory Usage
section                    address  length [bytes]      (dec)  Description
-------                 ----------  -------------------------  -----------
.reset                  0xbfc00000          0x1b4         436  Reset handler 
.bev_excpt              0xbfc00380           0x10          16  BEV-Exception 
         Total kseg1_boot_mem used  :       0x1c4         452  39.2% of 0x480
        --------------------------------------------------------------------------
         Total Program Memory used  :      0x4980       18816  0.9% of 0x200480
        --------------------------------------------------------------------------


kseg0 Data-Memory Usage
section                    address  length [bytes]      (dec)  Description
-------                 ----------  -------------------------  -----------
.sdata                  0x80000000           0x60          96  Small init data 
.sbss                   0x80000060           0x40          64  Small uninit data 
.bss                    0x800000a0          0x418        1048  Uninitialized data 
.bss                    0x800004b8           0xd0         208  Uninitialized data 
.data                   0x80000588           0xa4         164  Initialized data 
.bss                    0x8000062c           0xa4         164  Uninitialized data 
         Total kseg0_data_mem used  :       0x6d0        1744  0.3% of 0x80000
        --------------------------------------------------------------------------
            Total Data Memory used  :       0x6d0        1744  0.3% of 0x80000
        --------------------------------------------------------------------------


Dynamic Data-Memory Reservation
section                    address  length [bytes]      (dec)  Description
-------                 ----------  -------------------------  -----------
heap                    0x800006d8          0x200         512  Reserved for heap 
stack                   0x800008f0        0x7f708      521992  Reserved for stack 

        --------------------------------------------------------------------------

Discarded input sections

 .text          0x00000000        0x0 c:/program files (x86)/microchip/xc32/v2.20/bin/bin/../../lib/gcc/pic32mx/4.8.3/../../../../pic32mx/lib/fpu64\debug-exception-return.o
 .data          0x00000000        0x0 c:/program files (x86)/microchip/xc32/v2.20/bin/bin/../../lib/gcc/pic32mx/4.8.3/../../../../pic32mx/lib/fpu64\debug-exception-return.o
 .bss           0x00000000        0x0 c:/program files (x86)/microchip/xc32/v2.20/bin/bin/../../lib/gcc/pic32mx/4.8.3/../../../../pic32mx/lib/fpu64\debug-exception-return.o
 .text          0x00000000        0x0 build/FFT/production/_ext/1360937237/neopixel.o
 .data          0x00000000        0x0 build/FFT/production/_ext/1360937237/neopixel.o
 .bss           0x00000000        0x0 build/FFT/production/_ext/1360937237/neopixel.o
 .reginfo       0x00000000       0x18 build/FFT/production/_ext/1360937237/neopixel.o
 .text.setLEDColor
                0x00000000       0x30 build/FFT/production/_ext/1360937237/neopixel.o
 .text.getUpdateStatus
                0x00000000        0x8 build/FFT/production/_ext/1360937237/neopixel.o
 .text          0x00000000        0x0 build/FFT/production/_ext/1360937237/FFT.o
 .data          0x00000000        0x0 build/FFT/production/_ext/1360937237/FFT.o
 .bss           0x00000000        0x0 build/FFT/production/_ext/1360937237/FFT.o
 .reginfo       0x00000000       0x18 build/FFT/production/_ext/1360937237/FFT.o
 .text.initFFT  0x00000000        0x8 build/FFT/production/_ext/1360937237/FFT.o
 .text.ComplexToMagnitude
                0x00000000       0xc8 build/FFT/production/_ext/1360937237/FFT.o
 .text.MajorPeak
                0x00000000      0x108 build/FFT/production/_ext/1360937237/FFT.o
 .text.Exponent
                0x00000000       0x3c build/FFT/production/_ext/1360937237/FFT.o
 .text.Swap     0x00000000       0x24 build/FFT/production/_ext/1360937237/FFT.o
 .text._Compute
                0x00000000      0x2f4 build/FFT/production/_ext/1360937237/FFT.o
 .text.Compute  0x00000000       0x64 build/FFT/production/_ext/1360937237/FFT.o
 .text.getDoFFT
                0x00000000        0x8 build/FFT/production/_ext/1360937237/FFT.o
 .text.DisplayFFT
                0x00000000      0x230 build/FFT/production/_ext/1360937237/FFT.o
 .text.updateFFTDisplay
                0x00000000       0xa0 build/FFT/production/_ext/1360937237/FFT.o
 .rodata        0x00000000       0x28 build/FFT/production/_ext/1360937237/FFT.o
 .text.printFFT
                0x00000000       0x70 build/FFT/production/_ext/1360937237/FFT.o
 COMMON         0x00000000     0x4000 build/FFT/production/_ext/1360937237/FFT.o
 .text          0x00000000        0x0 build/FFT/production/_ext/1360937237/ADCGather.o
 .data          0x00000000        0x0 build/FFT/production/_ext/1360937237/ADCGather.o
 .bss           0x00000000        0x0 build/FFT/production/_ext/1360937237/ADCGather.o
 .reginfo       0x00000000       0x18 build/FFT/production/_ext/1360937237/ADCGather.o
 .text.TMR3_Interrupt_Callback
                0x00000000       0x98 build/FFT/production/_ext/1360937237/ADCGather.o
 .text.getvReal
                0x00000000        0xc build/FFT/production/_ext/1360937237/ADCGather.o
 .text.getvImag
                0x00000000        0xc build/FFT/production/_ext/1360937237/ADCGather.o
 .text.getvRealElem
                0x00000000       0x18 build/FFT/production/_ext/1360937237/ADCGather.o
 .text.setupMicrophoneGather
                0x00000000       0x2c build/FFT/production/_ext/1360937237/ADCGather.o
 COMMON         0x00000000     0x2000 build/FFT/production/_ext/1360937237/ADCGather.o
 .text          0x00000000        0x0 build/FFT/production/_ext/1360937237/UART.o
 .data          0x00000000       0x10 build/FFT/production/_ext/1360937237/UART.o
 .bss           0x00000000        0x0 build/FFT/production/_ext/1360937237/UART.o
 .reginfo       0x00000000       0x18 build/FFT/production/_ext/1360937237/UART.o
 .text.APP_USARTBufferEventHandler
                0x00000000        0x8 build/FFT/production/_ext/1360937237/UART.o
 .text.setupUART
                0x00000000       0x48 build/FFT/production/_ext/1360937237/UART.o
 .rodata        0x00000000       0x10 build/FFT/production/_ext/1360937237/UART.o
 .text.TX_Task  0x00000000       0x4c build/FFT/production/_ext/1360937237/UART.o
 .text          0x00000000        0x0 build/FFT/production/_ext/2109630876/plib_ocmp6.o
 .data          0x00000000        0x0 build/FFT/production/_ext/2109630876/plib_ocmp6.o
 .bss           0x00000000        0x0 build/FFT/production/_ext/2109630876/plib_ocmp6.o
 .reginfo       0x00000000       0x18 build/FFT/production/_ext/2109630876/plib_ocmp6.o
 .text.OCMP6_Disable
                0x00000000       0x14 build/FFT/production/_ext/2109630876/plib_ocmp6.o
 .text.OCMP6_CompareValueGet
                0x00000000       0x10 build/FFT/production/_ext/2109630876/plib_ocmp6.o
 .text.OCMP6_CompareSecondaryValueSet
                0x00000000       0x10 build/FFT/production/_ext/2109630876/plib_ocmp6.o
 .text.OCMP6_CompareSecondaryValueGet
                0x00000000       0x10 build/FFT/production/_ext/2109630876/plib_ocmp6.o
 .text          0x00000000        0x0 build/FFT/production/_ext/1360937237/main.o
 .data          0x00000000        0x0 build/FFT/production/_ext/1360937237/main.o
 .bss           0x00000000        0x0 build/FFT/production/_ext/1360937237/main.o
 .reginfo       0x00000000       0x18 build/FFT/production/_ext/1360937237/main.o
 .text          0x00000000        0x0 build/FFT/production/_ext/1272119167/initialization.o
 .data          0x00000000        0x0 build/FFT/production/_ext/1272119167/initialization.o
 .reginfo       0x00000000       0x18 build/FFT/production/_ext/1272119167/initialization.o
 .text          0x00000000        0x0 build/FFT/production/_ext/1272119167/interrupts.o
 .data          0x00000000        0x0 build/FFT/production/_ext/1272119167/interrupts.o
 .bss           0x00000000        0x0 build/FFT/production/_ext/1272119167/interrupts.o
 .reginfo       0x00000000       0x18 build/FFT/production/_ext/1272119167/interrupts.o
 .text          0x00000000        0x0 build/FFT/production/_ext/1272119167/exceptions.o
 .data          0x00000000        0x0 build/FFT/production/_ext/1272119167/exceptions.o
 .bss           0x00000000        0x0 build/FFT/production/_ext/1272119167/exceptions.o
 .reginfo       0x00000000       0x18 build/FFT/production/_ext/1272119167/exceptions.o
 .text          0x00000000        0x0 build/FFT/production/_ext/489647995/xc32_monitor.o
 .data          0x00000000        0x0 build/FFT/production/_ext/489647995/xc32_monitor.o
 .bss           0x00000000        0x0 build/FFT/production/_ext/489647995/xc32_monitor.o
 .reginfo       0x00000000       0x18 build/FFT/production/_ext/489647995/xc32_monitor.o
 .text._mon_getc
                0x00000000       0x30 build/FFT/production/_ext/489647995/xc32_monitor.o
 .text          0x00000000        0x0 build/FFT/production/_ext/1317431971/plib_clk.o
 .data          0x00000000        0x0 build/FFT/production/_ext/1317431971/plib_clk.o
 .bss           0x00000000        0x0 build/FFT/production/_ext/1317431971/plib_clk.o
 .reginfo       0x00000000       0x18 build/FFT/production/_ext/1317431971/plib_clk.o
 .text          0x00000000        0x0 build/FFT/production/_ext/2109404916/plib_gpio.o
 .data          0x00000000        0x0 build/FFT/production/_ext/2109404916/plib_gpio.o
 .bss           0x00000000        0x0 build/FFT/production/_ext/2109404916/plib_gpio.o
 .reginfo       0x00000000       0x18 build/FFT/production/_ext/2109404916/plib_gpio.o
 .text.GPIO_PortRead
                0x00000000       0x18 build/FFT/production/_ext/2109404916/plib_gpio.o
 .text.GPIO_PortWrite
                0x00000000       0x30 build/FFT/production/_ext/2109404916/plib_gpio.o
 .text.GPIO_PortLatchRead
                0x00000000       0x18 build/FFT/production/_ext/2109404916/plib_gpio.o
 .text.GPIO_PortSet
                0x00000000       0x1c build/FFT/production/_ext/2109404916/plib_gpio.o
 .text.GPIO_PortClear
                0x00000000       0x1c build/FFT/production/_ext/2109404916/plib_gpio.o
 .text.GPIO_PortToggle
                0x00000000       0x1c build/FFT/production/_ext/2109404916/plib_gpio.o
 .text.GPIO_PortInputEnable
                0x00000000       0x1c build/FFT/production/_ext/2109404916/plib_gpio.o
 .text.GPIO_PortOutputEnable
                0x00000000       0x1c build/FFT/production/_ext/2109404916/plib_gpio.o
 .text          0x00000000        0x0 build/FFT/production/_ext/2109351088/plib_evic.o
 .data          0x00000000        0x0 build/FFT/production/_ext/2109351088/plib_evic.o
 .bss           0x00000000        0x0 build/FFT/production/_ext/2109351088/plib_evic.o
 .reginfo       0x00000000       0x18 build/FFT/production/_ext/2109351088/plib_evic.o
 .text.EVIC_SourceEnable
                0x00000000       0x28 build/FFT/production/_ext/2109351088/plib_evic.o
 .text.EVIC_SourceDisable
                0x00000000       0x28 build/FFT/production/_ext/2109351088/plib_evic.o
 .text.EVIC_SourceIsEnabled
                0x00000000       0x20 build/FFT/production/_ext/2109351088/plib_evic.o
 .text.EVIC_SourceStatusGet
                0x00000000       0x20 build/FFT/production/_ext/2109351088/plib_evic.o
 .text.EVIC_SourceStatusSet
                0x00000000       0x28 build/FFT/production/_ext/2109351088/plib_evic.o
 .text.EVIC_SourceStatusClear
                0x00000000       0x28 build/FFT/production/_ext/2109351088/plib_evic.o
 .text          0x00000000        0x0 build/FFT/production/_ext/2109630876/plib_ocmp4.o
 .data          0x00000000        0x0 build/FFT/production/_ext/2109630876/plib_ocmp4.o
 .bss           0x00000000        0x0 build/FFT/production/_ext/2109630876/plib_ocmp4.o
 .reginfo       0x00000000       0x18 build/FFT/production/_ext/2109630876/plib_ocmp4.o
 .text.OCMP4_Disable
                0x00000000       0x14 build/FFT/production/_ext/2109630876/plib_ocmp4.o
 .text.OCMP4_CompareValueGet
                0x00000000       0x10 build/FFT/production/_ext/2109630876/plib_ocmp4.o
 .text.OCMP4_CompareSecondaryValueSet
                0x00000000       0x10 build/FFT/production/_ext/2109630876/plib_ocmp4.o
 .text.OCMP4_CompareSecondaryValueGet
                0x00000000       0x10 build/FFT/production/_ext/2109630876/plib_ocmp4.o
 .text          0x00000000        0x0 build/FFT/production/_ext/2109630876/plib_ocmp2.o
 .data          0x00000000        0x0 build/FFT/production/_ext/2109630876/plib_ocmp2.o
 .bss           0x00000000        0x0 build/FFT/production/_ext/2109630876/plib_ocmp2.o
 .reginfo       0x00000000       0x18 build/FFT/production/_ext/2109630876/plib_ocmp2.o
 .text.OCMP2_CompareValueGet
                0x00000000       0x10 build/FFT/production/_ext/2109630876/plib_ocmp2.o
 .text.OCMP2_CompareSecondaryValueSet
                0x00000000       0x10 build/FFT/production/_ext/2109630876/plib_ocmp2.o
 .text.OCMP2_CompareSecondaryValueGet
                0x00000000       0x10 build/FFT/production/_ext/2109630876/plib_ocmp2.o
 .text          0x00000000        0x0 build/FFT/production/_ext/2109630876/plib_ocmp3.o
 .data          0x00000000        0x0 build/FFT/production/_ext/2109630876/plib_ocmp3.o
 .bss           0x00000000        0x0 build/FFT/production/_ext/2109630876/plib_ocmp3.o
 .reginfo       0x00000000       0x18 build/FFT/production/_ext/2109630876/plib_ocmp3.o
 .text.OCMP3_Disable
                0x00000000       0x14 build/FFT/production/_ext/2109630876/plib_ocmp3.o
 .text.OCMP3_CompareValueGet
                0x00000000       0x10 build/FFT/production/_ext/2109630876/plib_ocmp3.o
 .text.OCMP3_CompareSecondaryValueSet
                0x00000000       0x10 build/FFT/production/_ext/2109630876/plib_ocmp3.o
 .text.OCMP3_CompareSecondaryValueGet
                0x00000000       0x10 build/FFT/production/_ext/2109630876/plib_ocmp3.o
 .text          0x00000000        0x0 build/FFT/production/_ext/961138470/plib_adchs.o
 .data          0x00000000        0x0 build/FFT/production/_ext/961138470/plib_adchs.o
 .bss           0x00000000        0x0 build/FFT/production/_ext/961138470/plib_adchs.o
 .reginfo       0x00000000       0x18 build/FFT/production/_ext/961138470/plib_adchs.o
 .text.ADCHS_ModulesEnable
                0x00000000       0x1c build/FFT/production/_ext/961138470/plib_adchs.o
 .text.ADCHS_ModulesDisable
                0x00000000       0x20 build/FFT/production/_ext/961138470/plib_adchs.o
 .text.ADCHS_ChannelResultInterruptEnable
                0x00000000       0x48 build/FFT/production/_ext/961138470/plib_adchs.o
 .text.ADCHS_ChannelResultInterruptDisable
                0x00000000       0x50 build/FFT/production/_ext/961138470/plib_adchs.o
 .text.ADCHS_ChannelEarlyInterruptEnable
                0x00000000       0x48 build/FFT/production/_ext/961138470/plib_adchs.o
 .text.ADCHS_ChannelEarlyInterruptDisable
                0x00000000       0x50 build/FFT/production/_ext/961138470/plib_adchs.o
 .text.ADCHS_GlobalEdgeConversionStart
                0x00000000       0x1c build/FFT/production/_ext/961138470/plib_adchs.o
 .text.ADCHS_GlobalLevelConversionStart
                0x00000000       0x1c build/FFT/production/_ext/961138470/plib_adchs.o
 .text.ADCHS_ChannelConversionStart
                0x00000000       0x28 build/FFT/production/_ext/961138470/plib_adchs.o
 .text.ADCHS_ChannelResultIsReady
                0x00000000       0x30 build/FFT/production/_ext/961138470/plib_adchs.o
 .text.ADCHS_ChannelResultGet
                0x00000000       0x18 build/FFT/production/_ext/961138470/plib_adchs.o
 .text          0x00000000        0x0 build/FFT/production/_ext/2109807859/plib_uart1.o
 .data          0x00000000        0x0 build/FFT/production/_ext/2109807859/plib_uart1.o
 .bss           0x00000000        0x0 build/FFT/production/_ext/2109807859/plib_uart1.o
 .reginfo       0x00000000       0x18 build/FFT/production/_ext/2109807859/plib_uart1.o
 .text          0x00000000        0x0 build/FFT/production/_ext/1891070335/drv_usart.o
 .data          0x00000000        0x0 build/FFT/production/_ext/1891070335/drv_usart.o
 .reginfo       0x00000000       0x18 build/FFT/production/_ext/1891070335/drv_usart.o
 .text._DRV_USART_DriverHandleValidate
                0x00000000       0x78 build/FFT/production/_ext/1891070335/drv_usart.o
 .text._DRV_USART_RemoveClientTransfersFromList
                0x00000000       0x68 build/FFT/production/_ext/1891070335/drv_usart.o
 .text._DRV_USART_ResourceLock
                0x00000000      0x14c build/FFT/production/_ext/1891070335/drv_usart.o
 .text._DRV_USART_ResourceUnlock
                0x00000000      0x12c build/FFT/production/_ext/1891070335/drv_usart.o
 .text._DRV_USART_QueuePurge
                0x00000000       0x98 build/FFT/production/_ext/1891070335/drv_usart.o
 .text._DRV_USART_BufferAdd
                0x00000000      0x214 build/FFT/production/_ext/1891070335/drv_usart.o
 .text.DRV_USART_Status
                0x00000000       0x18 build/FFT/production/_ext/1891070335/drv_usart.o
 .text.DRV_USART_Open
                0x00000000      0x188 build/FFT/production/_ext/1891070335/drv_usart.o
 .text.DRV_USART_Close
                0x00000000       0xbc build/FFT/production/_ext/1891070335/drv_usart.o
 .text.DRV_USART_ErrorGet
                0x00000000       0x84 build/FFT/production/_ext/1891070335/drv_usart.o
 .text.DRV_USART_SerialSetup
                0x00000000       0xf4 build/FFT/production/_ext/1891070335/drv_usart.o
 .text.DRV_USART_BufferEventHandlerSet
                0x00000000       0x84 build/FFT/production/_ext/1891070335/drv_usart.o
 .text.DRV_USART_WriteBufferAdd
                0x00000000       0x20 build/FFT/production/_ext/1891070335/drv_usart.o
 .text.DRV_USART_ReadBufferAdd
                0x00000000       0x1c build/FFT/production/_ext/1891070335/drv_usart.o
 .text.DRV_USART_BufferCompletedBytesGet
                0x00000000      0x120 build/FFT/production/_ext/1891070335/drv_usart.o
 .text.DRV_USART_BufferStatusGet
                0x00000000       0x60 build/FFT/production/_ext/1891070335/drv_usart.o
 .text.DRV_USART_WriteQueuePurge
                0x00000000       0x1c build/FFT/production/_ext/1891070335/drv_usart.o
 .text.DRV_USART_ReadQueuePurge
                0x00000000       0x1c build/FFT/production/_ext/1891070335/drv_usart.o
 .text          0x00000000        0x0 build/FFT/production/_ext/1317415596/plib_tmr2.o
 .data          0x00000000        0x0 build/FFT/production/_ext/1317415596/plib_tmr2.o
 .bss           0x00000000        0x0 build/FFT/production/_ext/1317415596/plib_tmr2.o
 .reginfo       0x00000000       0x18 build/FFT/production/_ext/1317415596/plib_tmr2.o
 .text.TMR2_PeriodSet
                0x00000000       0x10 build/FFT/production/_ext/1317415596/plib_tmr2.o
 .text.TMR2_PeriodGet
                0x00000000       0x10 build/FFT/production/_ext/1317415596/plib_tmr2.o
 .text.TMR2_CounterGet
                0x00000000       0x10 build/FFT/production/_ext/1317415596/plib_tmr2.o
 .text.TMR2_FrequencyGet
                0x00000000        0xc build/FFT/production/_ext/1317415596/plib_tmr2.o
 .text.TMR2_InterruptDisable
                0x00000000       0x14 build/FFT/production/_ext/1317415596/plib_tmr2.o
 .text          0x00000000        0x0 build/FFT/production/_ext/1317415596/plib_tmr3.o
 .data          0x00000000        0x0 build/FFT/production/_ext/1317415596/plib_tmr3.o
 .bss           0x00000000        0x0 build/FFT/production/_ext/1317415596/plib_tmr3.o
 .reginfo       0x00000000       0x18 build/FFT/production/_ext/1317415596/plib_tmr3.o
 .text.TMR3_Start
                0x00000000       0x14 build/FFT/production/_ext/1317415596/plib_tmr3.o
 .text.TMR3_Stop
                0x00000000       0x14 build/FFT/production/_ext/1317415596/plib_tmr3.o
 .text.TMR3_PeriodSet
                0x00000000       0x10 build/FFT/production/_ext/1317415596/plib_tmr3.o
 .text.TMR3_PeriodGet
                0x00000000       0x10 build/FFT/production/_ext/1317415596/plib_tmr3.o
 .text.TMR3_CounterGet
                0x00000000       0x10 build/FFT/production/_ext/1317415596/plib_tmr3.o
 .text.TMR3_FrequencyGet
                0x00000000        0xc build/FFT/production/_ext/1317415596/plib_tmr3.o
 .text.TMR3_InterruptEnable
                0x00000000       0x14 build/FFT/production/_ext/1317415596/plib_tmr3.o
 .text.TMR3_InterruptDisable
                0x00000000       0x14 build/FFT/production/_ext/1317415596/plib_tmr3.o
 .text.TMR3_CallbackRegister
                0x00000000        0xc build/FFT/production/_ext/1317415596/plib_tmr3.o
 .text          0x00000000        0x0 build/FFT/production/_ext/504070962/sys_int.o
 .data          0x00000000        0x0 build/FFT/production/_ext/504070962/sys_int.o
 .bss           0x00000000        0x0 build/FFT/production/_ext/504070962/sys_int.o
 .reginfo       0x00000000       0x18 build/FFT/production/_ext/504070962/sys_int.o
 .text.SYS_INT_Enable
                0x00000000       0x18 build/FFT/production/_ext/504070962/sys_int.o
 .text.SYS_INT_Disable
                0x00000000       0x20 build/FFT/production/_ext/504070962/sys_int.o
 .text.SYS_INT_Restore
                0x00000000       0x24 build/FFT/production/_ext/504070962/sys_int.o
 .text.SYS_INT_SourceDisable
                0x00000000       0x58 build/FFT/production/_ext/504070962/sys_int.o
 .text.SYS_INT_SourceRestore
                0x00000000       0x28 build/FFT/production/_ext/504070962/sys_int.o
 .text          0x00000000        0x0 build/FFT/production/_ext/980732774/sys_dma.o
 .data          0x00000000        0x0 build/FFT/production/_ext/980732774/sys_dma.o
 .bss           0x00000000        0x0 build/FFT/production/_ext/980732774/sys_dma.o
 .reginfo       0x00000000       0x18 build/FFT/production/_ext/980732774/sys_dma.o
 .text          0x00000000        0x0 build/FFT/production/_ext/1360937237/app.o
 .data          0x00000000        0x0 build/FFT/production/_ext/1360937237/app.o
 .bss           0x00000000        0x0 build/FFT/production/_ext/1360937237/app.o
 .reginfo       0x00000000       0x18 build/FFT/production/_ext/1360937237/app.o
 .text          0x00000000        0x0 build/FFT/production/_ext/1272119167/tasks.o
 .data          0x00000000        0x0 build/FFT/production/_ext/1272119167/tasks.o
 .bss           0x00000000        0x0 build/FFT/production/_ext/1272119167/tasks.o
 .reginfo       0x00000000       0x18 build/FFT/production/_ext/1272119167/tasks.o
 .text          0x00000000        0x0 C:\Users\Madison\AppData\Local\Temp\ccasagLp.o
 .data          0x00000000        0x0 C:\Users\Madison\AppData\Local\Temp\ccasagLp.o
 .bss           0x00000000        0x0 C:\Users\Madison\AppData\Local\Temp\ccasagLp.o
 .reginfo       0x00000000       0x18 C:\Users\Madison\AppData\Local\Temp\ccasagLp.o
 .text          0x00000000        0x0 C:\Users\Madison\AppData\Local\Temp\ccIOsSxI.o
 .data          0x00000000        0x0 C:\Users\Madison\AppData\Local\Temp\ccIOsSxI.o
 .bss           0x00000000        0x0 C:\Users\Madison\AppData\Local\Temp\ccIOsSxI.o
 .reginfo       0x00000000       0x18 C:\Users\Madison\AppData\Local\Temp\ccIOsSxI.o
 .text          0x00000000        0x0 C:\Users\Madison\AppData\Local\Temp\ccOKe3k9.o
 .data          0x00000000        0x0 C:\Users\Madison\AppData\Local\Temp\ccOKe3k9.o
 .bss           0x00000000        0x0 C:\Users\Madison\AppData\Local\Temp\ccOKe3k9.o
 .reginfo       0x00000000       0x18 C:\Users\Madison\AppData\Local\Temp\ccOKe3k9.o
 .discard       0x00000000        0x4 C:\Users\Madison\AppData\Local\Temp\ccOKe3k9.o
 .text          0x00000000        0x0 c:/program files (x86)/microchip/xc32/v2.20/bin/bin/../../lib/gcc/pic32mx/4.8.3/../../../../pic32mx/lib/./proc/32MZ2048EFG100\default_isr_vectors.o
 .data          0x00000000        0x0 c:/program files (x86)/microchip/xc32/v2.20/bin/bin/../../lib/gcc/pic32mx/4.8.3/../../../../pic32mx/lib/./proc/32MZ2048EFG100\default_isr_vectors.o
 .bss           0x00000000        0x0 c:/program files (x86)/microchip/xc32/v2.20/bin/bin/../../lib/gcc/pic32mx/4.8.3/../../../../pic32mx/lib/./proc/32MZ2048EFG100\default_isr_vectors.o
 .reginfo       0x00000000       0x18 c:/program files (x86)/microchip/xc32/v2.20/bin/bin/../../lib/gcc/pic32mx/4.8.3/../../../../pic32mx/lib/./proc/32MZ2048EFG100\default_isr_vectors.o
 .discard       0x00000000        0x4 c:/program files (x86)/microchip/xc32/v2.20/bin/bin/../../lib/gcc/pic32mx/4.8.3/../../../../pic32mx/lib/./proc/32MZ2048EFG100\default_isr_vectors.o
 .data          0x00000000        0x0 c:/program files (x86)/microchip/xc32/v2.20/bin/bin/../../lib/gcc/pic32mx/4.8.3/../../../../pic32mx/lib/fpu64\pic32_software_reset.o
 .bss           0x00000000        0x0 c:/program files (x86)/microchip/xc32/v2.20/bin/bin/../../lib/gcc/pic32mx/4.8.3/../../../../pic32mx/lib/fpu64\pic32_software_reset.o
 .reginfo       0x00000000       0x18 c:/program files (x86)/microchip/xc32/v2.20/bin/bin/../../lib/gcc/pic32mx/4.8.3/../../../../pic32mx/lib/fpu64\pic32_software_reset.o
 .text          0x00000000        0x0 c:/program files (x86)/microchip/xc32/v2.20/bin/bin/../../lib/gcc/pic32mx/4.8.3/../../../../pic32mx/lib/./proc/32MZ2048EFG100\processor.o
 .data          0x00000000        0x0 c:/program files (x86)/microchip/xc32/v2.20/bin/bin/../../lib/gcc/pic32mx/4.8.3/../../../../pic32mx/lib/./proc/32MZ2048EFG100\processor.o
 .bss           0x00000000        0x0 c:/program files (x86)/microchip/xc32/v2.20/bin/bin/../../lib/gcc/pic32mx/4.8.3/../../../../pic32mx/lib/./proc/32MZ2048EFG100\processor.o
 .reginfo       0x00000000       0x18 c:/program files (x86)/microchip/xc32/v2.20/bin/bin/../../lib/gcc/pic32mx/4.8.3/../../../../pic32mx/lib/./proc/32MZ2048EFG100\processor.o
 .text          0x00000000        0x0 c:/program files (x86)/microchip/xc32/v2.20/bin/bin/../../lib/gcc/pic32mx/4.8.3/../../../../pic32mx/lib/./proc/32MZ2048EFG100\vector_offset_init.o
 .data          0x00000000        0x0 c:/program files (x86)/microchip/xc32/v2.20/bin/bin/../../lib/gcc/pic32mx/4.8.3/../../../../pic32mx/lib/./proc/32MZ2048EFG100\vector_offset_init.o
 .bss           0x00000000        0x0 c:/program files (x86)/microchip/xc32/v2.20/bin/bin/../../lib/gcc/pic32mx/4.8.3/../../../../pic32mx/lib/./proc/32MZ2048EFG100\vector_offset_init.o
 .reginfo       0x00000000       0x18 c:/program files (x86)/microchip/xc32/v2.20/bin/bin/../../lib/gcc/pic32mx/4.8.3/../../../../pic32mx/lib/./proc/32MZ2048EFG100\vector_offset_init.o
 .text          0x00000000        0x0 c:/program files (x86)/microchip/xc32/v2.20/bin/bin/../../lib/gcc/pic32mx/4.8.3/../../../../pic32mx/lib/fpu64\libpic32.a(default-bootstrap-exception-handler.o)
 .data          0x00000000        0x0 c:/program files (x86)/microchip/xc32/v2.20/bin/bin/../../lib/gcc/pic32mx/4.8.3/../../../../pic32mx/lib/fpu64\libpic32.a(default-bootstrap-exception-handler.o)
 .bss           0x00000000        0x0 c:/program files (x86)/microchip/xc32/v2.20/bin/bin/../../lib/gcc/pic32mx/4.8.3/../../../../pic32mx/lib/fpu64\libpic32.a(default-bootstrap-exception-handler.o)
 .reginfo       0x00000000       0x18 c:/program files (x86)/microchip/xc32/v2.20/bin/bin/../../lib/gcc/pic32mx/4.8.3/../../../../pic32mx/lib/fpu64\libpic32.a(default-bootstrap-exception-handler.o)
 .text          0x00000000        0x0 c:/program files (x86)/microchip/xc32/v2.20/bin/bin/../../lib/gcc/pic32mx/4.8.3/../../../../pic32mx/lib/fpu64\libpic32.a(default-on-reset.o)
 .data          0x00000000        0x0 c:/program files (x86)/microchip/xc32/v2.20/bin/bin/../../lib/gcc/pic32mx/4.8.3/../../../../pic32mx/lib/fpu64\libpic32.a(default-on-reset.o)
 .bss           0x00000000        0x0 c:/program files (x86)/microchip/xc32/v2.20/bin/bin/../../lib/gcc/pic32mx/4.8.3/../../../../pic32mx/lib/fpu64\libpic32.a(default-on-reset.o)
 .reginfo       0x00000000       0x18 c:/program files (x86)/microchip/xc32/v2.20/bin/bin/../../lib/gcc/pic32mx/4.8.3/../../../../pic32mx/lib/fpu64\libpic32.a(default-on-reset.o)
 .text          0x00000000        0x0 c:/program files (x86)/microchip/xc32/v2.20/bin/bin/../../lib/gcc/pic32mx/4.8.3/../../../../pic32mx/lib/fpu64\libpic32.a(default-on-bootstrap.o)
 .data          0x00000000        0x0 c:/program files (x86)/microchip/xc32/v2.20/bin/bin/../../lib/gcc/pic32mx/4.8.3/../../../../pic32mx/lib/fpu64\libpic32.a(default-on-bootstrap.o)
 .bss           0x00000000        0x0 c:/program files (x86)/microchip/xc32/v2.20/bin/bin/../../lib/gcc/pic32mx/4.8.3/../../../../pic32mx/lib/fpu64\libpic32.a(default-on-bootstrap.o)
 .reginfo       0x00000000       0x18 c:/program files (x86)/microchip/xc32/v2.20/bin/bin/../../lib/gcc/pic32mx/4.8.3/../../../../pic32mx/lib/fpu64\libpic32.a(default-on-bootstrap.o)
 .data          0x00000000        0x0 c:/program files (x86)/microchip/xc32/v2.20/bin/bin/../../lib/gcc/pic32mx/4.8.3/../../../../pic32mx/lib/fpu64\libpic32.a(default-nmi-handler.o)
 .bss           0x00000000        0x0 c:/program files (x86)/microchip/xc32/v2.20/bin/bin/../../lib/gcc/pic32mx/4.8.3/../../../../pic32mx/lib/fpu64\libpic32.a(default-nmi-handler.o)
 .reginfo       0x00000000       0x18 c:/program files (x86)/microchip/xc32/v2.20/bin/bin/../../lib/gcc/pic32mx/4.8.3/../../../../pic32mx/lib/fpu64\libpic32.a(default-nmi-handler.o)
 .data          0x00000000        0x0 c:/program files (x86)/microchip/xc32/v2.20/bin/bin/../../lib/gcc/pic32mx/4.8.3/../../../../pic32mx/lib/fpu64\libpic32.a(pic32_data_init.o)
 .bss           0x00000000        0x0 c:/program files (x86)/microchip/xc32/v2.20/bin/bin/../../lib/gcc/pic32mx/4.8.3/../../../../pic32mx/lib/fpu64\libpic32.a(pic32_data_init.o)
 .reginfo       0x00000000       0x18 c:/program files (x86)/microchip/xc32/v2.20/bin/bin/../../lib/gcc/pic32mx/4.8.3/../../../../pic32mx/lib/fpu64\libpic32.a(pic32_data_init.o)
 .text          0x00000000        0x0 c:/program files (x86)/microchip/xc32/v2.20/bin/bin/../../lib/gcc/pic32mx/4.8.3/../../../../pic32mx/lib/fpu64\libpic32.a(pic32_init_cache.o)
 .data          0x00000000        0x0 c:/program files (x86)/microchip/xc32/v2.20/bin/bin/../../lib/gcc/pic32mx/4.8.3/../../../../pic32mx/lib/fpu64\libpic32.a(pic32_init_cache.o)
 .bss           0x00000000        0x0 c:/program files (x86)/microchip/xc32/v2.20/bin/bin/../../lib/gcc/pic32mx/4.8.3/../../../../pic32mx/lib/fpu64\libpic32.a(pic32_init_cache.o)
 .reginfo       0x00000000       0x18 c:/program files (x86)/microchip/xc32/v2.20/bin/bin/../../lib/gcc/pic32mx/4.8.3/../../../../pic32mx/lib/fpu64\libpic32.a(pic32_init_cache.o)
 .cache_init.pic32_size_cache
                0x00000000       0x58 c:/program files (x86)/microchip/xc32/v2.20/bin/bin/../../lib/gcc/pic32mx/4.8.3/../../../../pic32mx/lib/fpu64\libpic32.a(pic32_init_cache.o)
 .text          0x00000000        0x0 c:/program files (x86)/microchip/xc32/v2.20/bin/bin/../../lib/gcc/pic32mx/4.8.3/../../../../pic32mx/lib/fpu64\libpic32.a(pic32_init_tlb_ebi_sqi.o)
 .data          0x00000000        0x0 c:/program files (x86)/microchip/xc32/v2.20/bin/bin/../../lib/gcc/pic32mx/4.8.3/../../../../pic32mx/lib/fpu64\libpic32.a(pic32_init_tlb_ebi_sqi.o)
 .bss           0x00000000        0x0 c:/program files (x86)/microchip/xc32/v2.20/bin/bin/../../lib/gcc/pic32mx/4.8.3/../../../../pic32mx/lib/fpu64\libpic32.a(pic32_init_tlb_ebi_sqi.o)
 .reginfo       0x00000000       0x18 c:/program files (x86)/microchip/xc32/v2.20/bin/bin/../../lib/gcc/pic32mx/4.8.3/../../../../pic32mx/lib/fpu64\libpic32.a(pic32_init_tlb_ebi_sqi.o)
 .text          0x00000000        0x0 c:/program files (x86)/microchip/xc32/v2.20/bin/bin/../../lib/gcc/pic32mx/4.8.3/../../../../pic32mx/lib/fpu64\libpic32.a(general-exception.o)
 .data          0x00000000        0x0 c:/program files (x86)/microchip/xc32/v2.20/bin/bin/../../lib/gcc/pic32mx/4.8.3/../../../../pic32mx/lib/fpu64\libpic32.a(general-exception.o)
 .bss           0x00000000        0x0 c:/program files (x86)/microchip/xc32/v2.20/bin/bin/../../lib/gcc/pic32mx/4.8.3/../../../../pic32mx/lib/fpu64\libpic32.a(general-exception.o)
 .reginfo       0x00000000       0x18 c:/program files (x86)/microchip/xc32/v2.20/bin/bin/../../lib/gcc/pic32mx/4.8.3/../../../../pic32mx/lib/fpu64\libpic32.a(general-exception.o)
 .text          0x00000000        0x0 c:/program files (x86)/microchip/xc32/v2.20/bin/bin/../../lib/gcc/pic32mx/4.8.3/../../../../pic32mx/lib/fpu64\libpic32.a(cache-err-exception.o)
 .data          0x00000000        0x0 c:/program files (x86)/microchip/xc32/v2.20/bin/bin/../../lib/gcc/pic32mx/4.8.3/../../../../pic32mx/lib/fpu64\libpic32.a(cache-err-exception.o)
 .bss           0x00000000        0x0 c:/program files (x86)/microchip/xc32/v2.20/bin/bin/../../lib/gcc/pic32mx/4.8.3/../../../../pic32mx/lib/fpu64\libpic32.a(cache-err-exception.o)
 .reginfo       0x00000000       0x18 c:/program files (x86)/microchip/xc32/v2.20/bin/bin/../../lib/gcc/pic32mx/4.8.3/../../../../pic32mx/lib/fpu64\libpic32.a(cache-err-exception.o)
 .text          0x00000000        0x0 c:/program files (x86)/microchip/xc32/v2.20/bin/bin/../../lib/gcc/pic32mx/4.8.3/../../../../pic32mx/lib/fpu64\libpic32.a(simple-tlb-refill-exception.o)
 .data          0x00000000        0x0 c:/program files (x86)/microchip/xc32/v2.20/bin/bin/../../lib/gcc/pic32mx/4.8.3/../../../../pic32mx/lib/fpu64\libpic32.a(simple-tlb-refill-exception.o)
 .bss           0x00000000        0x0 c:/program files (x86)/microchip/xc32/v2.20/bin/bin/../../lib/gcc/pic32mx/4.8.3/../../../../pic32mx/lib/fpu64\libpic32.a(simple-tlb-refill-exception.o)
 .reginfo       0x00000000       0x18 c:/program files (x86)/microchip/xc32/v2.20/bin/bin/../../lib/gcc/pic32mx/4.8.3/../../../../pic32mx/lib/fpu64\libpic32.a(simple-tlb-refill-exception.o)
 .text          0x00000000        0x0 c:/program files (x86)/microchip/xc32/v2.20/bin/bin/../../lib/gcc/pic32mx/4.8.3/../../../../pic32mx/lib/fpu64\libpic32.a(defaultinterrupt.o)
 .data          0x00000000        0x0 c:/program files (x86)/microchip/xc32/v2.20/bin/bin/../../lib/gcc/pic32mx/4.8.3/../../../../pic32mx/lib/fpu64\libpic32.a(defaultinterrupt.o)
 .bss           0x00000000        0x0 c:/program files (x86)/microchip/xc32/v2.20/bin/bin/../../lib/gcc/pic32mx/4.8.3/../../../../pic32mx/lib/fpu64\libpic32.a(defaultinterrupt.o)
 .reginfo       0x00000000       0x18 c:/program files (x86)/microchip/xc32/v2.20/bin/bin/../../lib/gcc/pic32mx/4.8.3/../../../../pic32mx/lib/fpu64\libpic32.a(defaultinterrupt.o)
 .text          0x00000000        0x0 c:/program files (x86)/microchip/xc32/v2.20/bin/bin/../../lib/gcc/pic32mx/4.8.3/../../../../pic32mx/lib/fpu64\libpic32.a(default-cache-err-exception-handler.o)
 .data          0x00000000        0x0 c:/program files (x86)/microchip/xc32/v2.20/bin/bin/../../lib/gcc/pic32mx/4.8.3/../../../../pic32mx/lib/fpu64\libpic32.a(default-cache-err-exception-handler.o)
 .bss           0x00000000        0x0 c:/program files (x86)/microchip/xc32/v2.20/bin/bin/../../lib/gcc/pic32mx/4.8.3/../../../../pic32mx/lib/fpu64\libpic32.a(default-cache-err-exception-handler.o)
 .reginfo       0x00000000       0x18 c:/program files (x86)/microchip/xc32/v2.20/bin/bin/../../lib/gcc/pic32mx/4.8.3/../../../../pic32mx/lib/fpu64\libpic32.a(default-cache-err-exception-handler.o)
 .text          0x00000000        0x0 c:/program files (x86)/microchip/xc32/v2.20/bin/bin/../../lib/gcc/pic32mx/4.8.3/../../../../pic32mx/lib/fpu64\libpic32.a(default-simple-tlb-refill-exception-handler.o)
 .data          0x00000000        0x0 c:/program files (x86)/microchip/xc32/v2.20/bin/bin/../../lib/gcc/pic32mx/4.8.3/../../../../pic32mx/lib/fpu64\libpic32.a(default-simple-tlb-refill-exception-handler.o)
 .bss           0x00000000        0x0 c:/program files (x86)/microchip/xc32/v2.20/bin/bin/../../lib/gcc/pic32mx/4.8.3/../../../../pic32mx/lib/fpu64\libpic32.a(default-simple-tlb-refill-exception-handler.o)
 .reginfo       0x00000000       0x18 c:/program files (x86)/microchip/xc32/v2.20/bin/bin/../../lib/gcc/pic32mx/4.8.3/../../../../pic32mx/lib/fpu64\libpic32.a(default-simple-tlb-refill-exception-handler.o)
 .text          0x00000000        0x0 c:/program files (x86)/microchip/xc32/v2.20/bin/bin/../../lib/gcc/pic32mx/4.8.3/../../../../pic32mx/lib/fpu64\libc.a(puts.o)
 .data          0x00000000        0x0 c:/program files (x86)/microchip/xc32/v2.20/bin/bin/../../lib/gcc/pic32mx/4.8.3/../../../../pic32mx/lib/fpu64\libc.a(puts.o)
 .bss           0x00000000        0x0 c:/program files (x86)/microchip/xc32/v2.20/bin/bin/../../lib/gcc/pic32mx/4.8.3/../../../../pic32mx/lib/fpu64\libc.a(puts.o)
 .reginfo       0x00000000       0x18 c:/program files (x86)/microchip/xc32/v2.20/bin/bin/../../lib/gcc/pic32mx/4.8.3/../../../../pic32mx/lib/fpu64\libc.a(puts.o)
 .text.fputs    0x00000000       0x60 c:/program files (x86)/microchip/xc32/v2.20/bin/bin/../../lib/gcc/pic32mx/4.8.3/../../../../pic32mx/lib/fpu64\libc.a(puts.o)
 .text.puts     0x00000000       0x44 c:/program files (x86)/microchip/xc32/v2.20/bin/bin/../../lib/gcc/pic32mx/4.8.3/../../../../pic32mx/lib/fpu64\libc.a(puts.o)
 .text          0x00000000        0x0 c:/program files (x86)/microchip/xc32/v2.20/bin/bin/../../lib/gcc/pic32mx/4.8.3/../../../../pic32mx/lib/fpu64\libc.a(printf_cdnopsuxX.eo)
 .data          0x00000000        0x0 c:/program files (x86)/microchip/xc32/v2.20/bin/bin/../../lib/gcc/pic32mx/4.8.3/../../../../pic32mx/lib/fpu64\libc.a(printf_cdnopsuxX.eo)
 .bss           0x00000000        0x0 c:/program files (x86)/microchip/xc32/v2.20/bin/bin/../../lib/gcc/pic32mx/4.8.3/../../../../pic32mx/lib/fpu64\libc.a(printf_cdnopsuxX.eo)
 .reginfo       0x00000000       0x18 c:/program files (x86)/microchip/xc32/v2.20/bin/bin/../../lib/gcc/pic32mx/4.8.3/../../../../pic32mx/lib/fpu64\libc.a(printf_cdnopsuxX.eo)
 .text          0x00000000        0x0 c:/program files (x86)/microchip/xc32/v2.20/bin/bin/../../lib/gcc/pic32mx/4.8.3/../../../../pic32mx/lib/fpu64\libc.a(_iob.o)
 .reginfo       0x00000000       0x18 c:/program files (x86)/microchip/xc32/v2.20/bin/bin/../../lib/gcc/pic32mx/4.8.3/../../../../pic32mx/lib/fpu64\libc.a(_iob.o)
 .text          0x00000000        0x0 c:/program files (x86)/microchip/xc32/v2.20/bin/bin/../../lib/gcc/pic32mx/4.8.3/../../../../pic32mx/lib/fpu64\libc.a(_fputc_simple.o)
 .data          0x00000000        0x0 c:/program files (x86)/microchip/xc32/v2.20/bin/bin/../../lib/gcc/pic32mx/4.8.3/../../../../pic32mx/lib/fpu64\libc.a(_fputc_simple.o)
 .bss           0x00000000        0x0 c:/program files (x86)/microchip/xc32/v2.20/bin/bin/../../lib/gcc/pic32mx/4.8.3/../../../../pic32mx/lib/fpu64\libc.a(_fputc_simple.o)
 .reginfo       0x00000000       0x18 c:/program files (x86)/microchip/xc32/v2.20/bin/bin/../../lib/gcc/pic32mx/4.8.3/../../../../pic32mx/lib/fpu64\libc.a(_fputc_simple.o)
 .text          0x00000000        0x0 c:/program files (x86)/microchip/xc32/v2.20/bin/bin/../../lib/gcc/pic32mx/4.8.3/../../../../pic32mx/lib/fpu64\libc.a(doprnt_cdnopsuxX.eo)
 .data          0x00000000        0x0 c:/program files (x86)/microchip/xc32/v2.20/bin/bin/../../lib/gcc/pic32mx/4.8.3/../../../../pic32mx/lib/fpu64\libc.a(doprnt_cdnopsuxX.eo)
 .bss           0x00000000        0x0 c:/program files (x86)/microchip/xc32/v2.20/bin/bin/../../lib/gcc/pic32mx/4.8.3/../../../../pic32mx/lib/fpu64\libc.a(doprnt_cdnopsuxX.eo)
 .reginfo       0x00000000       0x18 c:/program files (x86)/microchip/xc32/v2.20/bin/bin/../../lib/gcc/pic32mx/4.8.3/../../../../pic32mx/lib/fpu64\libc.a(doprnt_cdnopsuxX.eo)
 .text          0x00000000        0x0 c:/program files (x86)/microchip/xc32/v2.20/bin/bin/../../lib/gcc/pic32mx/4.8.3/../../../../pic32mx/lib/fpu64\libc.a(_flsbuf_simple.o)
 .data          0x00000000        0x0 c:/program files (x86)/microchip/xc32/v2.20/bin/bin/../../lib/gcc/pic32mx/4.8.3/../../../../pic32mx/lib/fpu64\libc.a(_flsbuf_simple.o)
 .bss           0x00000000        0x0 c:/program files (x86)/microchip/xc32/v2.20/bin/bin/../../lib/gcc/pic32mx/4.8.3/../../../../pic32mx/lib/fpu64\libc.a(_flsbuf_simple.o)
 .reginfo       0x00000000       0x18 c:/program files (x86)/microchip/xc32/v2.20/bin/bin/../../lib/gcc/pic32mx/4.8.3/../../../../pic32mx/lib/fpu64\libc.a(_flsbuf_simple.o)
 .text          0x00000000        0x0 c:/program files (x86)/microchip/xc32/v2.20/bin/bin/../../lib/gcc/pic32mx/4.8.3/../../../../pic32mx/lib/fpu64\libc.a(ctype.o)
 .data          0x00000000        0x0 c:/program files (x86)/microchip/xc32/v2.20/bin/bin/../../lib/gcc/pic32mx/4.8.3/../../../../pic32mx/lib/fpu64\libc.a(ctype.o)
 .bss           0x00000000        0x0 c:/program files (x86)/microchip/xc32/v2.20/bin/bin/../../lib/gcc/pic32mx/4.8.3/../../../../pic32mx/lib/fpu64\libc.a(ctype.o)
 .reginfo       0x00000000       0x18 c:/program files (x86)/microchip/xc32/v2.20/bin/bin/../../lib/gcc/pic32mx/4.8.3/../../../../pic32mx/lib/fpu64\libc.a(ctype.o)
 .text          0x00000000        0x0 c:/program files (x86)/microchip/xc32/v2.20/bin/bin/../../lib/gcc/pic32mx/4.8.3/../../../../pic32mx/lib/fpu64\libmfd.a(w_pow.o)
 .data          0x00000000        0x0 c:/program files (x86)/microchip/xc32/v2.20/bin/bin/../../lib/gcc/pic32mx/4.8.3/../../../../pic32mx/lib/fpu64\libmfd.a(w_pow.o)
 .bss           0x00000000        0x0 c:/program files (x86)/microchip/xc32/v2.20/bin/bin/../../lib/gcc/pic32mx/4.8.3/../../../../pic32mx/lib/fpu64\libmfd.a(w_pow.o)
 .reginfo       0x00000000       0x18 c:/program files (x86)/microchip/xc32/v2.20/bin/bin/../../lib/gcc/pic32mx/4.8.3/../../../../pic32mx/lib/fpu64\libmfd.a(w_pow.o)
 .text._powx    0x00000000      0x284 c:/program files (x86)/microchip/xc32/v2.20/bin/bin/../../lib/gcc/pic32mx/4.8.3/../../../../pic32mx/lib/fpu64\libmfd.a(w_pow.o)
 .rodata        0x00000000        0x8 c:/program files (x86)/microchip/xc32/v2.20/bin/bin/../../lib/gcc/pic32mx/4.8.3/../../../../pic32mx/lib/fpu64\libmfd.a(w_pow.o)
 .text          0x00000000        0x0 c:/program files (x86)/microchip/xc32/v2.20/bin/bin/../../lib/gcc/pic32mx/4.8.3/../../../../pic32mx/lib/fpu64\libmfd.a(pic32_w_sqrt.o)
 .data          0x00000000        0x0 c:/program files (x86)/microchip/xc32/v2.20/bin/bin/../../lib/gcc/pic32mx/4.8.3/../../../../pic32mx/lib/fpu64\libmfd.a(pic32_w_sqrt.o)
 .bss           0x00000000        0x0 c:/program files (x86)/microchip/xc32/v2.20/bin/bin/../../lib/gcc/pic32mx/4.8.3/../../../../pic32mx/lib/fpu64\libmfd.a(pic32_w_sqrt.o)
 .reginfo       0x00000000       0x18 c:/program files (x86)/microchip/xc32/v2.20/bin/bin/../../lib/gcc/pic32mx/4.8.3/../../../../pic32mx/lib/fpu64\libmfd.a(pic32_w_sqrt.o)
 .text._sqrtx   0x00000000       0x1c c:/program files (x86)/microchip/xc32/v2.20/bin/bin/../../lib/gcc/pic32mx/4.8.3/../../../../pic32mx/lib/fpu64\libmfd.a(pic32_w_sqrt.o)
 .text          0x00000000       0x34 c:/program files (x86)/microchip/xc32/v2.20/bin/bin/../../lib/gcc/pic32mx/4.8.3/../../../../pic32mx/lib/fpu64\libmfd.a(sqrtfd.o)
 .data          0x00000000        0x0 c:/program files (x86)/microchip/xc32/v2.20/bin/bin/../../lib/gcc/pic32mx/4.8.3/../../../../pic32mx/lib/fpu64\libmfd.a(sqrtfd.o)
 .bss           0x00000000        0x0 c:/program files (x86)/microchip/xc32/v2.20/bin/bin/../../lib/gcc/pic32mx/4.8.3/../../../../pic32mx/lib/fpu64\libmfd.a(sqrtfd.o)
 .reginfo       0x00000000       0x18 c:/program files (x86)/microchip/xc32/v2.20/bin/bin/../../lib/gcc/pic32mx/4.8.3/../../../../pic32mx/lib/fpu64\libmfd.a(sqrtfd.o)
 .text          0x00000000        0x0 c:/program files (x86)/microchip/xc32/v2.20/bin/bin/../../lib/gcc/pic32mx/4.8.3/../../../../pic32mx/lib/fpu64\libmfd.a(e_pow.o)
 .data          0x00000000        0x0 c:/program files (x86)/microchip/xc32/v2.20/bin/bin/../../lib/gcc/pic32mx/4.8.3/../../../../pic32mx/lib/fpu64\libmfd.a(e_pow.o)
 .bss           0x00000000        0x0 c:/program files (x86)/microchip/xc32/v2.20/bin/bin/../../lib/gcc/pic32mx/4.8.3/../../../../pic32mx/lib/fpu64\libmfd.a(e_pow.o)
 .reginfo       0x00000000       0x18 c:/program files (x86)/microchip/xc32/v2.20/bin/bin/../../lib/gcc/pic32mx/4.8.3/../../../../pic32mx/lib/fpu64\libmfd.a(e_pow.o)
 .text.__ieee754_pow
                0x00000000      0x8d4 c:/program files (x86)/microchip/xc32/v2.20/bin/bin/../../lib/gcc/pic32mx/4.8.3/../../../../pic32mx/lib/fpu64\libmfd.a(e_pow.o)
 .rodata        0x00000000      0x128 c:/program files (x86)/microchip/xc32/v2.20/bin/bin/../../lib/gcc/pic32mx/4.8.3/../../../../pic32mx/lib/fpu64\libmfd.a(e_pow.o)
 .text          0x00000000        0x0 c:/program files (x86)/microchip/xc32/v2.20/bin/bin/../../lib/gcc/pic32mx/4.8.3/../../../../pic32mx/lib/fpu64\libmfd.a(k_standard.o)
 .data          0x00000000        0x0 c:/program files (x86)/microchip/xc32/v2.20/bin/bin/../../lib/gcc/pic32mx/4.8.3/../../../../pic32mx/lib/fpu64\libmfd.a(k_standard.o)
 .bss           0x00000000        0x0 c:/program files (x86)/microchip/xc32/v2.20/bin/bin/../../lib/gcc/pic32mx/4.8.3/../../../../pic32mx/lib/fpu64\libmfd.a(k_standard.o)
 .reginfo       0x00000000       0x18 c:/program files (x86)/microchip/xc32/v2.20/bin/bin/../../lib/gcc/pic32mx/4.8.3/../../../../pic32mx/lib/fpu64\libmfd.a(k_standard.o)
 .text.__kernel_standard
                0x00000000      0x77c c:/program files (x86)/microchip/xc32/v2.20/bin/bin/../../lib/gcc/pic32mx/4.8.3/../../../../pic32mx/lib/fpu64\libmfd.a(k_standard.o)
 .rodata        0x00000000       0x18 c:/program files (x86)/microchip/xc32/v2.20/bin/bin/../../lib/gcc/pic32mx/4.8.3/../../../../pic32mx/lib/fpu64\libmfd.a(k_standard.o)
 .text          0x00000000        0x0 c:/program files (x86)/microchip/xc32/v2.20/bin/bin/../../lib/gcc/pic32mx/4.8.3/../../../../pic32mx/lib/fpu64\libmfd.a(s_rint.o)
 .data          0x00000000        0x0 c:/program files (x86)/microchip/xc32/v2.20/bin/bin/../../lib/gcc/pic32mx/4.8.3/../../../../pic32mx/lib/fpu64\libmfd.a(s_rint.o)
 .bss           0x00000000        0x0 c:/program files (x86)/microchip/xc32/v2.20/bin/bin/../../lib/gcc/pic32mx/4.8.3/../../../../pic32mx/lib/fpu64\libmfd.a(s_rint.o)
 .reginfo       0x00000000       0x18 c:/program files (x86)/microchip/xc32/v2.20/bin/bin/../../lib/gcc/pic32mx/4.8.3/../../../../pic32mx/lib/fpu64\libmfd.a(s_rint.o)
 .text.rint     0x00000000      0x180 c:/program files (x86)/microchip/xc32/v2.20/bin/bin/../../lib/gcc/pic32mx/4.8.3/../../../../pic32mx/lib/fpu64\libmfd.a(s_rint.o)
 .rodata        0x00000000       0x10 c:/program files (x86)/microchip/xc32/v2.20/bin/bin/../../lib/gcc/pic32mx/4.8.3/../../../../pic32mx/lib/fpu64\libmfd.a(s_rint.o)
 .text          0x00000000        0x0 c:/program files (x86)/microchip/xc32/v2.20/bin/bin/../../lib/gcc/pic32mx/4.8.3/../../../../pic32mx/lib/fpu64\libmfd.a(s_scalbn.o)
 .data          0x00000000        0x0 c:/program files (x86)/microchip/xc32/v2.20/bin/bin/../../lib/gcc/pic32mx/4.8.3/../../../../pic32mx/lib/fpu64\libmfd.a(s_scalbn.o)
 .bss           0x00000000        0x0 c:/program files (x86)/microchip/xc32/v2.20/bin/bin/../../lib/gcc/pic32mx/4.8.3/../../../../pic32mx/lib/fpu64\libmfd.a(s_scalbn.o)
 .reginfo       0x00000000       0x18 c:/program files (x86)/microchip/xc32/v2.20/bin/bin/../../lib/gcc/pic32mx/4.8.3/../../../../pic32mx/lib/fpu64\libmfd.a(s_scalbn.o)
 .text.our_scalbn
                0x00000000      0x16c c:/program files (x86)/microchip/xc32/v2.20/bin/bin/../../lib/gcc/pic32mx/4.8.3/../../../../pic32mx/lib/fpu64\libmfd.a(s_scalbn.o)
 .text.scalbn   0x00000000        0x8 c:/program files (x86)/microchip/xc32/v2.20/bin/bin/../../lib/gcc/pic32mx/4.8.3/../../../../pic32mx/lib/fpu64\libmfd.a(s_scalbn.o)
 .rodata        0x00000000       0x30 c:/program files (x86)/microchip/xc32/v2.20/bin/bin/../../lib/gcc/pic32mx/4.8.3/../../../../pic32mx/lib/fpu64\libmfd.a(s_scalbn.o)
 .data          0x00000000        0x0 c:/program files (x86)/microchip/xc32/v2.20/bin/bin/../../lib/gcc/pic32mx/4.8.3/fpu64\libgcc.a(_udivdi3.o)
 .bss           0x00000000        0x0 c:/program files (x86)/microchip/xc32/v2.20/bin/bin/../../lib/gcc/pic32mx/4.8.3/fpu64\libgcc.a(_udivdi3.o)
 .reginfo       0x00000000       0x18 c:/program files (x86)/microchip/xc32/v2.20/bin/bin/../../lib/gcc/pic32mx/4.8.3/fpu64\libgcc.a(_udivdi3.o)
 .data          0x00000000        0x0 c:/program files (x86)/microchip/xc32/v2.20/bin/bin/../../lib/gcc/pic32mx/4.8.3/fpu64\libgcc.a(_umoddi3.o)
 .bss           0x00000000        0x0 c:/program files (x86)/microchip/xc32/v2.20/bin/bin/../../lib/gcc/pic32mx/4.8.3/fpu64\libgcc.a(_umoddi3.o)
 .reginfo       0x00000000       0x18 c:/program files (x86)/microchip/xc32/v2.20/bin/bin/../../lib/gcc/pic32mx/4.8.3/fpu64\libgcc.a(_umoddi3.o)
 .text          0x00000000        0x0 c:/program files (x86)/microchip/xc32/v2.20/bin/bin/../../lib/gcc/pic32mx/4.8.3/../../../../pic32mx/lib/fpu64\libpic32.a(write.o)
 .data          0x00000000        0x0 c:/program files (x86)/microchip/xc32/v2.20/bin/bin/../../lib/gcc/pic32mx/4.8.3/../../../../pic32mx/lib/fpu64\libpic32.a(write.o)
 .bss           0x00000000        0x0 c:/program files (x86)/microchip/xc32/v2.20/bin/bin/../../lib/gcc/pic32mx/4.8.3/../../../../pic32mx/lib/fpu64\libpic32.a(write.o)
 .reginfo       0x00000000       0x18 c:/program files (x86)/microchip/xc32/v2.20/bin/bin/../../lib/gcc/pic32mx/4.8.3/../../../../pic32mx/lib/fpu64\libpic32.a(write.o)
 .text          0x00000000        0x0 c:/program files (x86)/microchip/xc32/v2.20/bin/bin/../../lib/gcc/pic32mx/4.8.3/../../../../pic32mx/lib/fpu64\libpic32.a(errno.o)
 .data          0x00000000        0x0 c:/program files (x86)/microchip/xc32/v2.20/bin/bin/../../lib/gcc/pic32mx/4.8.3/../../../../pic32mx/lib/fpu64\libpic32.a(errno.o)
 .bss           0x00000000        0x0 c:/program files (x86)/microchip/xc32/v2.20/bin/bin/../../lib/gcc/pic32mx/4.8.3/../../../../pic32mx/lib/fpu64\libpic32.a(errno.o)
 .reginfo       0x00000000       0x18 c:/program files (x86)/microchip/xc32/v2.20/bin/bin/../../lib/gcc/pic32mx/4.8.3/../../../../pic32mx/lib/fpu64\libpic32.a(errno.o)
 .bss.errno     0x00000000        0x4 c:/program files (x86)/microchip/xc32/v2.20/bin/bin/../../lib/gcc/pic32mx/4.8.3/../../../../pic32mx/lib/fpu64\libpic32.a(errno.o)

Memory Configuration

Name             Origin             Length             Attributes
kseg0_program_mem 0x9d000000         0x00200000         xr
kseg0_boot_mem   0x9fc004b0         0x00000000
kseg1_boot_mem   0xbfc00000         0x00000480
kseg1_boot_mem_4B0 0xbfc004b0         0x0000fa50
config_BFC0FF40  0xbfc0ff40         0x00000004
config_BFC0FF44  0xbfc0ff44         0x00000004
config_BFC0FF48  0xbfc0ff48         0x00000004
config_BFC0FF4C  0xbfc0ff4c         0x00000004
config_BFC0FF50  0xbfc0ff50         0x00000004
config_BFC0FF54  0xbfc0ff54         0x00000004
config_BFC0FF58  0xbfc0ff58         0x00000004
config_BFC0FF5C  0xbfc0ff5c         0x00000004
config_BFC0FF60  0xbfc0ff60         0x00000004
config_BFC0FF64  0xbfc0ff64         0x00000004
config_BFC0FF68  0xbfc0ff68         0x00000004
config_BFC0FF6C  0xbfc0ff6c         0x00000004
config_BFC0FF70  0xbfc0ff70         0x00000004
config_BFC0FF74  0xbfc0ff74         0x00000004
config_BFC0FF78  0xbfc0ff78         0x00000004
config_BFC0FF7C  0xbfc0ff7c         0x00000004
config_BFC0FFC0  0xbfc0ffc0         0x00000004
config_BFC0FFC4  0xbfc0ffc4         0x00000004
config_BFC0FFC8  0xbfc0ffc8         0x00000004
config_BFC0FFCC  0xbfc0ffcc         0x00000004
config_BFC0FFD0  0xbfc0ffd0         0x00000004
config_BFC0FFD4  0xbfc0ffd4         0x00000004
config_BFC0FFD8  0xbfc0ffd8         0x00000004
config_BFC0FFDC  0xbfc0ffdc         0x00000004
config_BFC0FFE0  0xbfc0ffe0         0x00000004
config_BFC0FFE4  0xbfc0ffe4         0x00000004
config_BFC0FFE8  0xbfc0ffe8         0x00000004
config_BFC0FFEC  0xbfc0ffec         0x00000004
config_BFC0FFF0  0xbfc0fff0         0x00000004
config_BFC0FFF4  0xbfc0fff4         0x00000004
config_BFC0FFF8  0xbfc0fff8         0x00000004
config_BFC0FFFC  0xbfc0fffc         0x00000004
lowerbootaliaslastpage 0xbfc10000         0x00004000
upperbootalias   0xbfc20000         0x0000ff00
config_BFC2FF40  0xbfc2ff40         0x00000004
config_BFC2FF44  0xbfc2ff44         0x00000004
config_BFC2FF48  0xbfc2ff48         0x00000004
config_BFC2FF4C  0xbfc2ff4c         0x00000004
config_BFC2FF50  0xbfc2ff50         0x00000004
config_BFC2FF54  0xbfc2ff54         0x00000004
config_BFC2FF58  0xbfc2ff58         0x00000004
config_BFC2FF5C  0xbfc2ff5c         0x00000004
config_BFC2FF60  0xbfc2ff60         0x00000004
config_BFC2FF64  0xbfc2ff64         0x00000004
config_BFC2FF68  0xbfc2ff68         0x00000004
config_BFC2FF6C  0xbfc2ff6c         0x00000004
config_BFC2FF70  0xbfc2ff70         0x00000004
config_BFC2FF74  0xbfc2ff74         0x00000004
config_BFC2FF78  0xbfc2ff78         0x00000004
config_BFC2FF7C  0xbfc2ff7c         0x00000004
config_BFC2FFC0  0xbfc2ffc0         0x00000004
config_BFC2FFC4  0xbfc2ffc4         0x00000004
config_BFC2FFC8  0xbfc2ffc8         0x00000004
config_BFC2FFCC  0xbfc2ffcc         0x00000004
config_BFC2FFD0  0xbfc2ffd0         0x00000004
config_BFC2FFD4  0xbfc2ffd4         0x00000004
config_BFC2FFD8  0xbfc2ffd8         0x00000004
config_BFC2FFDC  0xbfc2ffdc         0x00000004
config_BFC2FFE0  0xbfc2ffe0         0x00000004
config_BFC2FFE4  0xbfc2ffe4         0x00000004
config_BFC2FFE8  0xbfc2ffe8         0x00000004
config_BFC2FFEC  0xbfc2ffec         0x00000004
config_BFC2FFF0  0xbfc2fff0         0x00000004
config_BFC2FFF4  0xbfc2fff4         0x00000004
config_BFC2FFF8  0xbfc2fff8         0x00000004
config_BFC2FFFC  0xbfc2fffc         0x00000004
upperbootaliaslastpage 0xbfc30000         0x00004000
boot1            0xbfc40000         0x0000ff00
config_BFC4FF40  0xbfc4ff40         0x00000004
config_BFC4FF44  0xbfc4ff44         0x00000004
config_BFC4FF48  0xbfc4ff48         0x00000004
config_BFC4FF4C  0xbfc4ff4c         0x00000004
config_BFC4FF50  0xbfc4ff50         0x00000004
config_BFC4FF54  0xbfc4ff54         0x00000004
config_BFC4FF58  0xbfc4ff58         0x00000004
config_BFC4FF5C  0xbfc4ff5c         0x00000004
config_BFC4FF60  0xbfc4ff60         0x00000004
config_BFC4FF64  0xbfc4ff64         0x00000004
config_BFC4FF68  0xbfc4ff68         0x00000004
config_BFC4FF6C  0xbfc4ff6c         0x00000004
config_BFC4FF70  0xbfc4ff70         0x00000004
config_BFC4FF74  0xbfc4ff74         0x00000004
config_BFC4FF78  0xbfc4ff78         0x00000004
config_BFC4FF7C  0xbfc4ff7c         0x00000004
config_BFC4FFC0  0xbfc4ffc0         0x00000004
config_BFC4FFC4  0xbfc4ffc4         0x00000004
config_BFC4FFC8  0xbfc4ffc8         0x00000004
config_BFC4FFCC  0xbfc4ffcc         0x00000004
config_BFC4FFD0  0xbfc4ffd0         0x00000004
config_BFC4FFD4  0xbfc4ffd4         0x00000004
config_BFC4FFD8  0xbfc4ffd8         0x00000004
config_BFC4FFDC  0xbfc4ffdc         0x00000004
config_BFC4FFE0  0xbfc4ffe0         0x00000004
config_BFC4FFE4  0xbfc4ffe4         0x00000004
config_BFC4FFE8  0xbfc4ffe8         0x00000004
config_BFC4FFEC  0xbfc4ffec         0x00000004
config_BFC4FFF0  0xbfc4fff0         0x00000004
config_BFC4FFF4  0xbfc4fff4         0x00000004
config_BFC4FFF8  0xbfc4fff8         0x00000004
config_BFC4FFFC  0xbfc4fffc         0x00000004
boot1lastpage    0xbfc50000         0x00004000
config_BFC54000  0xbfc54000         0x00000004
config_BFC54004  0xbfc54004         0x00000004
config_BFC54008  0xbfc54008         0x00000004
config_BFC5400C  0xbfc5400c         0x00000004
config_BFC54010  0xbfc54010         0x00000004
config_BFC5401C  0xbfc5401c         0x00000004
config_BFC54020  0xbfc54020         0x00000004
config_BFC54024  0xbfc54024         0x00000004
boot2            0xbfc60000         0x0000ff00
config_BFC6FF40  0xbfc6ff40         0x00000004
config_BFC6FF44  0xbfc6ff44         0x00000004
config_BFC6FF48  0xbfc6ff48         0x00000004
config_BFC6FF4C  0xbfc6ff4c         0x00000004
config_BFC6FF50  0xbfc6ff50         0x00000004
config_BFC6FF54  0xbfc6ff54         0x00000004
config_BFC6FF58  0xbfc6ff58         0x00000004
config_BFC6FF5C  0xbfc6ff5c         0x00000004
config_BFC6FF60  0xbfc6ff60         0x00000004
config_BFC6FF64  0xbfc6ff64         0x00000004
config_BFC6FF68  0xbfc6ff68         0x00000004
config_BFC6FF6C  0xbfc6ff6c         0x00000004
config_BFC6FF70  0xbfc6ff70         0x00000004
config_BFC6FF74  0xbfc6ff74         0x00000004
config_BFC6FF78  0xbfc6ff78         0x00000004
config_BFC6FF7C  0xbfc6ff7c         0x00000004
config_BFC6FFC0  0xbfc6ffc0         0x00000004
config_BFC6FFC4  0xbfc6ffc4         0x00000004
config_BFC6FFC8  0xbfc6ffc8         0x00000004
config_BFC6FFCC  0xbfc6ffcc         0x00000004
config_BFC6FFD0  0xbfc6ffd0         0x00000004
config_BFC6FFD4  0xbfc6ffd4         0x00000004
config_BFC6FFD8  0xbfc6ffd8         0x00000004
config_BFC6FFDC  0xbfc6ffdc         0x00000004
config_BFC6FFE0  0xbfc6ffe0         0x00000004
config_BFC6FFE4  0xbfc6ffe4         0x00000004
config_BFC6FFE8  0xbfc6ffe8         0x00000004
config_BFC6FFEC  0xbfc6ffec         0x00000004
config_BFC6FFF0  0xbfc6fff0         0x00000004
config_BFC6FFF4  0xbfc6fff4         0x00000004
config_BFC6FFF8  0xbfc6fff8         0x00000004
config_BFC6FFFC  0xbfc6fffc         0x00000004
boot2lastpage    0xbfc70000         0x00004000
kseg0_data_mem   0x80000000         0x00080000         w !x
sfrs             0xbf800000         0x00100000
configsfrs_BFC0FF40 0xbfc0ff40         0x00000040
configsfrs_BFC0FFC0 0xbfc0ffc0         0x00000040
configsfrs_BFC2FF40 0xbfc2ff40         0x00000040
configsfrs_BFC2FFC0 0xbfc2ffc0         0x00000040
configsfrs_BFC4FF40 0xbfc4ff40         0x00000040
configsfrs_BFC4FFC0 0xbfc4ffc0         0x00000040
configsfrs_BFC54000 0xbfc54000         0x00000020
configsfrs_BFC6FF40 0xbfc6ff40         0x00000040
configsfrs_BFC6FFC0 0xbfc6ffc0         0x00000040
kseg2_ebi_data_mem 0xc0000000         0x04000000
kseg2_sqi_data_mem 0xd0000000         0x04000000
kseg3_ebi_data_mem 0xe0000000         0x04000000
kseg3_sqi_data_mem 0xf0000000         0x04000000
*default*        0x00000000         0xffffffff

Linker script and memory map

LOAD c:/program files (x86)/microchip/xc32/v2.20/bin/bin/../../lib/gcc/pic32mx/4.8.3/../../../../pic32mx/lib/fpu64\debug-exception-return.o
LOAD build/FFT/production/_ext/1360937237/neopixel.o
LOAD build/FFT/production/_ext/1360937237/FFT.o
LOAD build/FFT/production/_ext/1360937237/ADCGather.o
LOAD build/FFT/production/_ext/1360937237/UART.o
LOAD build/FFT/production/_ext/2109630876/plib_ocmp6.o
LOAD build/FFT/production/_ext/1360937237/main.o
LOAD build/FFT/production/_ext/1272119167/initialization.o
LOAD build/FFT/production/_ext/1272119167/interrupts.o
LOAD build/FFT/production/_ext/1272119167/exceptions.o
LOAD build/FFT/production/_ext/489647995/xc32_monitor.o
LOAD build/FFT/production/_ext/1317431971/plib_clk.o
LOAD build/FFT/production/_ext/2109404916/plib_gpio.o
LOAD build/FFT/production/_ext/2109351088/plib_evic.o
LOAD build/FFT/production/_ext/2109630876/plib_ocmp4.o
LOAD build/FFT/production/_ext/2109630876/plib_ocmp2.o
LOAD build/FFT/production/_ext/2109630876/plib_ocmp3.o
LOAD build/FFT/production/_ext/961138470/plib_adchs.o
LOAD build/FFT/production/_ext/2109807859/plib_uart1.o
LOAD build/FFT/production/_ext/1891070335/drv_usart.o
LOAD build/FFT/production/_ext/1317415596/plib_tmr2.o
LOAD build/FFT/production/_ext/1317415596/plib_tmr3.o
LOAD build/FFT/production/_ext/504070962/sys_int.o
LOAD build/FFT/production/_ext/980732774/sys_dma.o
LOAD build/FFT/production/_ext/1360937237/app.o
LOAD build/FFT/production/_ext/1272119167/tasks.o
                0x00000001                __MPLAB_BUILD = 0x1
                0x00000200                _min_heap_size = 0x200
LOAD C:\Users\Madison\AppData\Local\Temp\ccasagLp.o
LOAD C:\Users\Madison\AppData\Local\Temp\ccIOsSxI.o
LOAD C:\Users\Madison\AppData\Local\Temp\ccOKe3k9.o
LOAD c:/program files (x86)/microchip/xc32/v2.20/bin/bin/../../lib/gcc/pic32mx/4.8.3/../../../../pic32mx/lib/./proc/32MZ2048EFG100\default_isr_vectors.o
LOAD c:/program files (x86)/microchip/xc32/v2.20/bin/bin/../../lib/gcc/pic32mx/4.8.3/../../../../pic32mx/lib/fpu64\pic32_software_reset.o
                0x00000400                PROVIDE (_min_stack_size, 0x400)
START GROUP
LOAD c:/program files (x86)/microchip/xc32/v2.20/bin/bin/../../lib/gcc/pic32mx/4.8.3/../../../../pic32mx/lib/./proc/32MZ2048EFG100\processor.o
END GROUP
START GROUP
LOAD c:/program files (x86)/microchip/xc32/v2.20/bin/bin/../../lib/gcc/pic32mx/4.8.3/../../../../pic32mx/lib/./proc/32MZ2048EFG100\vector_offset_init.o
END GROUP
                0x00000001                PROVIDE (_vector_spacing, 0x1)
                0x9d000000                PROVIDE (_ebase_address, 0x9d000000)
                0xbfc00000                _RESET_ADDR = 0xbfc00000
                0xbfc00380                _BEV_EXCPT_ADDR = 0xbfc00380
                0xbfc00480                _DBG_EXCPT_ADDR = 0xbfc00480
                0x9d000000                _SIMPLE_TLB_REFILL_EXCPT_ADDR = (_ebase_address + 0x0)
                0x9d000100                _CACHE_ERR_EXCPT_ADDR = (_ebase_address + 0x100)
                0x9d000180                _GEN_EXCPT_ADDR = (_ebase_address + 0x180)

.config_BFC0FF40
 *(.config_BFC0FF40)

.config_BFC0FF44
 *(.config_BFC0FF44)

.config_BFC0FF48
 *(.config_BFC0FF48)

.config_BFC0FF4C
 *(.config_BFC0FF4C)

.config_BFC0FF50
 *(.config_BFC0FF50)

.config_BFC0FF54
 *(.config_BFC0FF54)

.config_BFC0FF58
 *(.config_BFC0FF58)

.config_BFC0FF5C
 *(.config_BFC0FF5C)

.config_BFC0FF60
 *(.config_BFC0FF60)

.config_BFC0FF64
 *(.config_BFC0FF64)

.config_BFC0FF68
 *(.config_BFC0FF68)

.config_BFC0FF6C
 *(.config_BFC0FF6C)

.config_BFC0FF70
 *(.config_BFC0FF70)

.config_BFC0FF74
 *(.config_BFC0FF74)

.config_BFC0FF78
 *(.config_BFC0FF78)

.config_BFC0FF7C
 *(.config_BFC0FF7C)

.config_BFC0FFC0
                0xbfc0ffc0        0x4
 *(.config_BFC0FFC0)
 .config_BFC0FFC0
                0xbfc0ffc0        0x4 build/FFT/production/_ext/1272119167/initialization.o

.config_BFC0FFC4
                0xbfc0ffc4        0x4
 *(.config_BFC0FFC4)
 .config_BFC0FFC4
                0xbfc0ffc4        0x4 build/FFT/production/_ext/1272119167/initialization.o

.config_BFC0FFC8
                0xbfc0ffc8        0x4
 *(.config_BFC0FFC8)
 .config_BFC0FFC8
                0xbfc0ffc8        0x4 build/FFT/production/_ext/1272119167/initialization.o

.config_BFC0FFCC
                0xbfc0ffcc        0x4
 *(.config_BFC0FFCC)
 .config_BFC0FFCC
                0xbfc0ffcc        0x4 build/FFT/production/_ext/1272119167/initialization.o

.config_BFC0FFD0
 *(.config_BFC0FFD0)

.config_BFC0FFD4
 *(.config_BFC0FFD4)

.config_BFC0FFD8
 *(.config_BFC0FFD8)

.config_BFC0FFDC
                0xbfc0ffdc        0x4
 *(.config_BFC0FFDC)
 .config_BFC0FFDC
                0xbfc0ffdc        0x4 build/FFT/production/_ext/1272119167/initialization.o

.config_BFC0FFE0
 *(.config_BFC0FFE0)

.config_BFC0FFE4
 *(.config_BFC0FFE4)

.config_BFC0FFE8
 *(.config_BFC0FFE8)

.config_BFC0FFEC
 *(.config_BFC0FFEC)

.config_BFC0FFF0
                0xbfc0fff0        0x4
 *(.config_BFC0FFF0)
 .config_BFC0FFF0
                0xbfc0fff0        0x4 build/FFT/production/_ext/1272119167/initialization.o

.config_BFC0FFF4
 *(.config_BFC0FFF4)

.config_BFC0FFF8
 *(.config_BFC0FFF8)

.config_BFC0FFFC
 *(.config_BFC0FFFC)

.config_BFC2FF40
 *(.config_BFC2FF40)

.config_BFC2FF44
 *(.config_BFC2FF44)

.config_BFC2FF48
 *(.config_BFC2FF48)

.config_BFC2FF4C
 *(.config_BFC2FF4C)

.config_BFC2FF50
 *(.config_BFC2FF50)

.config_BFC2FF54
 *(.config_BFC2FF54)

.config_BFC2FF58
 *(.config_BFC2FF58)

.config_BFC2FF5C
 *(.config_BFC2FF5C)

.config_BFC2FF60
 *(.config_BFC2FF60)

.config_BFC2FF64
 *(.config_BFC2FF64)

.config_BFC2FF68
 *(.config_BFC2FF68)

.config_BFC2FF6C
 *(.config_BFC2FF6C)

.config_BFC2FF70
 *(.config_BFC2FF70)

.config_BFC2FF74
 *(.config_BFC2FF74)

.config_BFC2FF78
 *(.config_BFC2FF78)

.config_BFC2FF7C
 *(.config_BFC2FF7C)

.config_BFC2FFC0
 *(.config_BFC2FFC0)

.config_BFC2FFC4
 *(.config_BFC2FFC4)

.config_BFC2FFC8
 *(.config_BFC2FFC8)

.config_BFC2FFCC
 *(.config_BFC2FFCC)

.config_BFC2FFD0
 *(.config_BFC2FFD0)

.config_BFC2FFD4
 *(.config_BFC2FFD4)

.config_BFC2FFD8
 *(.config_BFC2FFD8)

.config_BFC2FFDC
 *(.config_BFC2FFDC)

.config_BFC2FFE0
 *(.config_BFC2FFE0)

.config_BFC2FFE4
 *(.config_BFC2FFE4)

.config_BFC2FFE8
 *(.config_BFC2FFE8)

.config_BFC2FFEC
 *(.config_BFC2FFEC)

.config_BFC2FFF0
 *(.config_BFC2FFF0)

.config_BFC2FFF4
 *(.config_BFC2FFF4)

.config_BFC2FFF8
 *(.config_BFC2FFF8)

.config_BFC2FFFC
 *(.config_BFC2FFFC)

.config_BFC4FF40
 *(.config_BFC4FF40)

.config_BFC4FF44
 *(.config_BFC4FF44)

.config_BFC4FF48
 *(.config_BFC4FF48)

.config_BFC4FF4C
 *(.config_BFC4FF4C)

.config_BFC4FF50
 *(.config_BFC4FF50)

.config_BFC4FF54
 *(.config_BFC4FF54)

.config_BFC4FF58
 *(.config_BFC4FF58)

.config_BFC4FF5C
 *(.config_BFC4FF5C)

.config_BFC4FF60
 *(.config_BFC4FF60)

.config_BFC4FF64
 *(.config_BFC4FF64)

.config_BFC4FF68
 *(.config_BFC4FF68)

.config_BFC4FF6C
 *(.config_BFC4FF6C)

.config_BFC4FF70
 *(.config_BFC4FF70)

.config_BFC4FF74
 *(.config_BFC4FF74)

.config_BFC4FF78
 *(.config_BFC4FF78)

.config_BFC4FF7C
 *(.config_BFC4FF7C)

.config_BFC4FFC0
 *(.config_BFC4FFC0)

.config_BFC4FFC4
 *(.config_BFC4FFC4)

.config_BFC4FFC8
 *(.config_BFC4FFC8)

.config_BFC4FFCC
 *(.config_BFC4FFCC)

.config_BFC4FFD0
 *(.config_BFC4FFD0)

.config_BFC4FFD4
 *(.config_BFC4FFD4)

.config_BFC4FFD8
 *(.config_BFC4FFD8)

.config_BFC4FFDC
 *(.config_BFC4FFDC)

.config_BFC4FFE0
 *(.config_BFC4FFE0)

.config_BFC4FFE4
 *(.config_BFC4FFE4)

.config_BFC4FFE8
 *(.config_BFC4FFE8)

.config_BFC4FFEC
 *(.config_BFC4FFEC)

.config_BFC4FFF0
 *(.config_BFC4FFF0)

.config_BFC4FFF4
 *(.config_BFC4FFF4)

.config_BFC4FFF8
 *(.config_BFC4FFF8)

.config_BFC4FFFC
 *(.config_BFC4FFFC)

.config_BFC54000
 *(.config_BFC54000)

.config_BFC54004
 *(.config_BFC54004)

.config_BFC54008
 *(.config_BFC54008)

.config_BFC5400C
 *(.config_BFC5400C)

.config_BFC54010
 *(.config_BFC54010)

.config_BFC5401C
 *(.config_BFC5401C)

.config_BFC54020
 *(.config_BFC54020)

.config_BFC54024
 *(.config_BFC54024)

.config_BFC6FF40
 *(.config_BFC6FF40)

.config_BFC6FF44
 *(.config_BFC6FF44)

.config_BFC6FF48
 *(.config_BFC6FF48)

.config_BFC6FF4C
 *(.config_BFC6FF4C)

.config_BFC6FF50
 *(.config_BFC6FF50)

.config_BFC6FF54
 *(.config_BFC6FF54)

.config_BFC6FF58
 *(.config_BFC6FF58)

.config_BFC6FF5C
 *(.config_BFC6FF5C)

.config_BFC6FF60
 *(.config_BFC6FF60)

.config_BFC6FF64
 *(.config_BFC6FF64)

.config_BFC6FF68
 *(.config_BFC6FF68)

.config_BFC6FF6C
 *(.config_BFC6FF6C)

.config_BFC6FF70
 *(.config_BFC6FF70)

.config_BFC6FF74
 *(.config_BFC6FF74)

.config_BFC6FF78
 *(.config_BFC6FF78)

.config_BFC6FF7C
 *(.config_BFC6FF7C)

.config_BFC6FFC0
 *(.config_BFC6FFC0)

.config_BFC6FFC4
 *(.config_BFC6FFC4)

.config_BFC6FFC8
 *(.config_BFC6FFC8)

.config_BFC6FFCC
 *(.config_BFC6FFCC)

.config_BFC6FFD0
 *(.config_BFC6FFD0)

.config_BFC6FFD4
 *(.config_BFC6FFD4)

.config_BFC6FFD8
 *(.config_BFC6FFD8)

.config_BFC6FFDC
 *(.config_BFC6FFDC)

.config_BFC6FFE0
 *(.config_BFC6FFE0)

.config_BFC6FFE4
 *(.config_BFC6FFE4)

.config_BFC6FFE8
 *(.config_BFC6FFE8)

.config_BFC6FFEC
 *(.config_BFC6FFEC)

.config_BFC6FFF0
 *(.config_BFC6FFF0)

.config_BFC6FFF4
 *(.config_BFC6FFF4)

.config_BFC6FFF8
 *(.config_BFC6FFF8)

.config_BFC6FFFC
 *(.config_BFC6FFFC)

.reset          0xbfc00000      0x1b4
 *(.reset)
 .reset         0xbfc00000       0x18 C:\Users\Madison\AppData\Local\Temp\ccasagLp.o
                0xbfc00000                _reset
 *(.reset.startup)
 .reset.startup
                0xbfc00018      0x19c C:\Users\Madison\AppData\Local\Temp\ccasagLp.o
                0xbfc00018                _startup

.bev_excpt      0xbfc00380       0x10
 *(.bev_handler)
 .bev_handler   0xbfc00380       0x10 C:\Users\Madison\AppData\Local\Temp\ccasagLp.o

.cache_init     0xbfc004b0      0x1c0
 *(.cache_init)
 *(.cache_init.*)
 .cache_init.cache
                0xbfc004b0       0xc0 c:/program files (x86)/microchip/xc32/v2.20/bin/bin/../../lib/gcc/pic32mx/4.8.3/../../../../pic32mx/lib/fpu64\libpic32.a(pic32_init_cache.o)
 .cache_init.pic32_init_cache
                0xbfc00570      0x100 c:/program files (x86)/microchip/xc32/v2.20/bin/bin/../../lib/gcc/pic32mx/4.8.3/../../../../pic32mx/lib/fpu64\libpic32.a(pic32_init_cache.o)
                0xbfc00570                __pic32_init_cache

.simple_tlb_refill_excpt
                0x9d000000       0x10
 *(.simple_tlb_refill_vector)
 .simple_tlb_refill_vector
                0x9d000000       0x10 C:\Users\Madison\AppData\Local\Temp\ccasagLp.o

.cache_err_excpt
                0x9d000100       0x10
 *(.cache_err_vector)
 .cache_err_vector
                0x9d000100       0x10 C:\Users\Madison\AppData\Local\Temp\ccasagLp.o

.app_excpt      0x9d000180       0x10
 *(.gen_handler)
 .gen_handler   0x9d000180       0x10 C:\Users\Madison\AppData\Local\Temp\ccasagLp.o

.vectors        0x9d000200       0x70
                0x9d000200                . = ALIGN (0x4)
                0x00000228                __vector_offset_0 = DEFINED (__vector_dispatch_0)?(. - _ebase_address):__vector_offset_default
 *(.vector_0)
                0x9d000200                . = ALIGN (0x4)
                0x00000228                __vector_offset_1 = DEFINED (__vector_dispatch_1)?(. - _ebase_address):__vector_offset_default
 *(.vector_1)
                0x9d000200                . = ALIGN (0x4)
                0x00000228                __vector_offset_2 = DEFINED (__vector_dispatch_2)?(. - _ebase_address):__vector_offset_default
 *(.vector_2)
                0x9d000200                . = ALIGN (0x4)
                0x00000228                __vector_offset_3 = DEFINED (__vector_dispatch_3)?(. - _ebase_address):__vector_offset_default
 *(.vector_3)
                0x9d000200                . = ALIGN (0x4)
                0x00000228                __vector_offset_4 = DEFINED (__vector_dispatch_4)?(. - _ebase_address):__vector_offset_default
 *(.vector_4)
                0x9d000200                . = ALIGN (0x4)
                0x00000228                __vector_offset_5 = DEFINED (__vector_dispatch_5)?(. - _ebase_address):__vector_offset_default
 *(.vector_5)
                0x9d000200                . = ALIGN (0x4)
                0x00000228                __vector_offset_6 = DEFINED (__vector_dispatch_6)?(. - _ebase_address):__vector_offset_default
 *(.vector_6)
                0x9d000200                . = ALIGN (0x4)
                0x00000228                __vector_offset_7 = DEFINED (__vector_dispatch_7)?(. - _ebase_address):__vector_offset_default
 *(.vector_7)
                0x9d000200                . = ALIGN (0x4)
                0x00000228                __vector_offset_8 = DEFINED (__vector_dispatch_8)?(. - _ebase_address):__vector_offset_default
 *(.vector_8)
                0x9d000200                . = ALIGN (0x4)
                0x00000200                __vector_offset_9 = DEFINED (__vector_dispatch_9)?(. - _ebase_address):__vector_offset_default
 *(.vector_9)
 .vector_9      0x9d000200        0x8 build/FFT/production/_ext/1272119167/interrupts.o
                0x9d000200                __vector_dispatch_9
                0x9d000208                . = ALIGN (0x4)
                0x00000228                __vector_offset_10 = DEFINED (__vector_dispatch_10)?(. - _ebase_address):__vector_offset_default
 *(.vector_10)
                0x9d000208                . = ALIGN (0x4)
                0x00000228                __vector_offset_11 = DEFINED (__vector_dispatch_11)?(. - _ebase_address):__vector_offset_default
 *(.vector_11)
                0x9d000208                . = ALIGN (0x4)
                0x00000228                __vector_offset_12 = DEFINED (__vector_dispatch_12)?(. - _ebase_address):__vector_offset_default
 *(.vector_12)
                0x9d000208                . = ALIGN (0x4)
                0x00000228                __vector_offset_13 = DEFINED (__vector_dispatch_13)?(. - _ebase_address):__vector_offset_default
 *(.vector_13)
                0x9d000208                . = ALIGN (0x4)
                0x00000208                __vector_offset_14 = DEFINED (__vector_dispatch_14)?(. - _ebase_address):__vector_offset_default
 *(.vector_14)
 .vector_14     0x9d000208        0x8 build/FFT/production/_ext/1272119167/interrupts.o
                0x9d000208                __vector_dispatch_14
                0x9d000210                . = ALIGN (0x4)
                0x00000228                __vector_offset_15 = DEFINED (__vector_dispatch_15)?(. - _ebase_address):__vector_offset_default
 *(.vector_15)
                0x9d000210                . = ALIGN (0x4)
                0x00000228                __vector_offset_16 = DEFINED (__vector_dispatch_16)?(. - _ebase_address):__vector_offset_default
 *(.vector_16)
                0x9d000210                . = ALIGN (0x4)
                0x00000228                __vector_offset_17 = DEFINED (__vector_dispatch_17)?(. - _ebase_address):__vector_offset_default
 *(.vector_17)
                0x9d000210                . = ALIGN (0x4)
                0x00000228                __vector_offset_18 = DEFINED (__vector_dispatch_18)?(. - _ebase_address):__vector_offset_default
 *(.vector_18)
                0x9d000210                . = ALIGN (0x4)
                0x00000228                __vector_offset_19 = DEFINED (__vector_dispatch_19)?(. - _ebase_address):__vector_offset_default
 *(.vector_19)
                0x9d000210                . = ALIGN (0x4)
                0x00000228                __vector_offset_20 = DEFINED (__vector_dispatch_20)?(. - _ebase_address):__vector_offset_default
 *(.vector_20)
                0x9d000210                . = ALIGN (0x4)
                0x00000228                __vector_offset_21 = DEFINED (__vector_dispatch_21)?(. - _ebase_address):__vector_offset_default
 *(.vector_21)
                0x9d000210                . = ALIGN (0x4)
                0x00000228                __vector_offset_22 = DEFINED (__vector_dispatch_22)?(. - _ebase_address):__vector_offset_default
 *(.vector_22)
                0x9d000210                . = ALIGN (0x4)
                0x00000228                __vector_offset_23 = DEFINED (__vector_dispatch_23)?(. - _ebase_address):__vector_offset_default
 *(.vector_23)
                0x9d000210                . = ALIGN (0x4)
                0x00000228                __vector_offset_24 = DEFINED (__vector_dispatch_24)?(. - _ebase_address):__vector_offset_default
 *(.vector_24)
                0x9d000210                . = ALIGN (0x4)
                0x00000228                __vector_offset_25 = DEFINED (__vector_dispatch_25)?(. - _ebase_address):__vector_offset_default
 *(.vector_25)
                0x9d000210                . = ALIGN (0x4)
                0x00000228                __vector_offset_26 = DEFINED (__vector_dispatch_26)?(. - _ebase_address):__vector_offset_default
 *(.vector_26)
                0x9d000210                . = ALIGN (0x4)
                0x00000228                __vector_offset_27 = DEFINED (__vector_dispatch_27)?(. - _ebase_address):__vector_offset_default
 *(.vector_27)
                0x9d000210                . = ALIGN (0x4)
                0x00000228                __vector_offset_28 = DEFINED (__vector_dispatch_28)?(. - _ebase_address):__vector_offset_default
 *(.vector_28)
                0x9d000210                . = ALIGN (0x4)
                0x00000228                __vector_offset_29 = DEFINED (__vector_dispatch_29)?(. - _ebase_address):__vector_offset_default
 *(.vector_29)
                0x9d000210                . = ALIGN (0x4)
                0x00000228                __vector_offset_30 = DEFINED (__vector_dispatch_30)?(. - _ebase_address):__vector_offset_default
 *(.vector_30)
                0x9d000210                . = ALIGN (0x4)
                0x00000228                __vector_offset_31 = DEFINED (__vector_dispatch_31)?(. - _ebase_address):__vector_offset_default
 *(.vector_31)
                0x9d000210                . = ALIGN (0x4)
                0x00000228                __vector_offset_32 = DEFINED (__vector_dispatch_32)?(. - _ebase_address):__vector_offset_default
 *(.vector_32)
                0x9d000210                . = ALIGN (0x4)
                0x00000228                __vector_offset_33 = DEFINED (__vector_dispatch_33)?(. - _ebase_address):__vector_offset_default
 *(.vector_33)
                0x9d000210                . = ALIGN (0x4)
                0x00000228                __vector_offset_34 = DEFINED (__vector_dispatch_34)?(. - _ebase_address):__vector_offset_default
 *(.vector_34)
                0x9d000210                . = ALIGN (0x4)
                0x00000228                __vector_offset_35 = DEFINED (__vector_dispatch_35)?(. - _ebase_address):__vector_offset_default
 *(.vector_35)
                0x9d000210                . = ALIGN (0x4)
                0x00000228                __vector_offset_36 = DEFINED (__vector_dispatch_36)?(. - _ebase_address):__vector_offset_default
 *(.vector_36)
                0x9d000210                . = ALIGN (0x4)
                0x00000228                __vector_offset_37 = DEFINED (__vector_dispatch_37)?(. - _ebase_address):__vector_offset_default
 *(.vector_37)
                0x9d000210                . = ALIGN (0x4)
                0x00000228                __vector_offset_38 = DEFINED (__vector_dispatch_38)?(. - _ebase_address):__vector_offset_default
 *(.vector_38)
                0x9d000210                . = ALIGN (0x4)
                0x00000228                __vector_offset_39 = DEFINED (__vector_dispatch_39)?(. - _ebase_address):__vector_offset_default
 *(.vector_39)
                0x9d000210                . = ALIGN (0x4)
                0x00000228                __vector_offset_40 = DEFINED (__vector_dispatch_40)?(. - _ebase_address):__vector_offset_default
 *(.vector_40)
                0x9d000210                . = ALIGN (0x4)
                0x00000228                __vector_offset_41 = DEFINED (__vector_dispatch_41)?(. - _ebase_address):__vector_offset_default
 *(.vector_41)
                0x9d000210                . = ALIGN (0x4)
                0x00000228                __vector_offset_42 = DEFINED (__vector_dispatch_42)?(. - _ebase_address):__vector_offset_default
 *(.vector_42)
                0x9d000210                . = ALIGN (0x4)
                0x00000228                __vector_offset_43 = DEFINED (__vector_dispatch_43)?(. - _ebase_address):__vector_offset_default
 *(.vector_43)
                0x9d000210                . = ALIGN (0x4)
                0x00000228                __vector_offset_44 = DEFINED (__vector_dispatch_44)?(. - _ebase_address):__vector_offset_default
 *(.vector_44)
                0x9d000210                . = ALIGN (0x4)
                0x00000228                __vector_offset_45 = DEFINED (__vector_dispatch_45)?(. - _ebase_address):__vector_offset_default
 *(.vector_45)
                0x9d000210                . = ALIGN (0x4)
                0x00000228                __vector_offset_46 = DEFINED (__vector_dispatch_46)?(. - _ebase_address):__vector_offset_default
 *(.vector_46)
                0x9d000210                . = ALIGN (0x4)
                0x00000228                __vector_offset_47 = DEFINED (__vector_dispatch_47)?(. - _ebase_address):__vector_offset_default
 *(.vector_47)
                0x9d000210                . = ALIGN (0x4)
                0x00000228                __vector_offset_48 = DEFINED (__vector_dispatch_48)?(. - _ebase_address):__vector_offset_default
 *(.vector_48)
                0x9d000210                . = ALIGN (0x4)
                0x00000228                __vector_offset_49 = DEFINED (__vector_dispatch_49)?(. - _ebase_address):__vector_offset_default
 *(.vector_49)
                0x9d000210                . = ALIGN (0x4)
                0x00000228                __vector_offset_50 = DEFINED (__vector_dispatch_50)?(. - _ebase_address):__vector_offset_default
 *(.vector_50)
                0x9d000210                . = ALIGN (0x4)
                0x00000228                __vector_offset_51 = DEFINED (__vector_dispatch_51)?(. - _ebase_address):__vector_offset_default
 *(.vector_51)
                0x9d000210                . = ALIGN (0x4)
                0x00000228                __vector_offset_52 = DEFINED (__vector_dispatch_52)?(. - _ebase_address):__vector_offset_default
 *(.vector_52)
                0x9d000210                . = ALIGN (0x4)
                0x00000228                __vector_offset_53 = DEFINED (__vector_dispatch_53)?(. - _ebase_address):__vector_offset_default
 *(.vector_53)
                0x9d000210                . = ALIGN (0x4)
                0x00000228                __vector_offset_54 = DEFINED (__vector_dispatch_54)?(. - _ebase_address):__vector_offset_default
 *(.vector_54)
                0x9d000210                . = ALIGN (0x4)
                0x00000228                __vector_offset_55 = DEFINED (__vector_dispatch_55)?(. - _ebase_address):__vector_offset_default
 *(.vector_55)
                0x9d000210                . = ALIGN (0x4)
                0x00000228                __vector_offset_56 = DEFINED (__vector_dispatch_56)?(. - _ebase_address):__vector_offset_default
 *(.vector_56)
                0x9d000210                . = ALIGN (0x4)
                0x00000228                __vector_offset_57 = DEFINED (__vector_dispatch_57)?(. - _ebase_address):__vector_offset_default
 *(.vector_57)
                0x9d000210                . = ALIGN (0x4)
                0x00000228                __vector_offset_58 = DEFINED (__vector_dispatch_58)?(. - _ebase_address):__vector_offset_default
 *(.vector_58)
                0x9d000210                . = ALIGN (0x4)
                0x00000228                __vector_offset_59 = DEFINED (__vector_dispatch_59)?(. - _ebase_address):__vector_offset_default
 *(.vector_59)
                0x9d000210                . = ALIGN (0x4)
                0x00000228                __vector_offset_60 = DEFINED (__vector_dispatch_60)?(. - _ebase_address):__vector_offset_default
 *(.vector_60)
                0x9d000210                . = ALIGN (0x4)
                0x00000228                __vector_offset_61 = DEFINED (__vector_dispatch_61)?(. - _ebase_address):__vector_offset_default
 *(.vector_61)
                0x9d000210                . = ALIGN (0x4)
                0x00000228                __vector_offset_62 = DEFINED (__vector_dispatch_62)?(. - _ebase_address):__vector_offset_default
 *(.vector_62)
                0x9d000210                . = ALIGN (0x4)
                0x00000228                __vector_offset_63 = DEFINED (__vector_dispatch_63)?(. - _ebase_address):__vector_offset_default
 *(.vector_63)
                0x9d000210                . = ALIGN (0x4)
                0x00000228                __vector_offset_64 = DEFINED (__vector_dispatch_64)?(. - _ebase_address):__vector_offset_default
 *(.vector_64)
                0x9d000210                . = ALIGN (0x4)
                0x00000228                __vector_offset_65 = DEFINED (__vector_dispatch_65)?(. - _ebase_address):__vector_offset_default
 *(.vector_65)
                0x9d000210                . = ALIGN (0x4)
                0x00000228                __vector_offset_66 = DEFINED (__vector_dispatch_66)?(. - _ebase_address):__vector_offset_default
 *(.vector_66)
                0x9d000210                . = ALIGN (0x4)
                0x00000228                __vector_offset_67 = DEFINED (__vector_dispatch_67)?(. - _ebase_address):__vector_offset_default
 *(.vector_67)
                0x9d000210                . = ALIGN (0x4)
                0x00000228                __vector_offset_68 = DEFINED (__vector_dispatch_68)?(. - _ebase_address):__vector_offset_default
 *(.vector_68)
                0x9d000210                . = ALIGN (0x4)
                0x00000228                __vector_offset_69 = DEFINED (__vector_dispatch_69)?(. - _ebase_address):__vector_offset_default
 *(.vector_69)
                0x9d000210                . = ALIGN (0x4)
                0x00000228                __vector_offset_70 = DEFINED (__vector_dispatch_70)?(. - _ebase_address):__vector_offset_default
 *(.vector_70)
                0x9d000210                . = ALIGN (0x4)
                0x00000228                __vector_offset_71 = DEFINED (__vector_dispatch_71)?(. - _ebase_address):__vector_offset_default
 *(.vector_71)
                0x9d000210                . = ALIGN (0x4)
                0x00000228                __vector_offset_72 = DEFINED (__vector_dispatch_72)?(. - _ebase_address):__vector_offset_default
 *(.vector_72)
                0x9d000210                . = ALIGN (0x4)
                0x00000228                __vector_offset_73 = DEFINED (__vector_dispatch_73)?(. - _ebase_address):__vector_offset_default
 *(.vector_73)
                0x9d000210                . = ALIGN (0x4)
                0x00000228                __vector_offset_74 = DEFINED (__vector_dispatch_74)?(. - _ebase_address):__vector_offset_default
 *(.vector_74)
                0x9d000210                . = ALIGN (0x4)
                0x00000228                __vector_offset_75 = DEFINED (__vector_dispatch_75)?(. - _ebase_address):__vector_offset_default
 *(.vector_75)
                0x9d000210                . = ALIGN (0x4)
                0x00000228                __vector_offset_76 = DEFINED (__vector_dispatch_76)?(. - _ebase_address):__vector_offset_default
 *(.vector_76)
                0x9d000210                . = ALIGN (0x4)
                0x00000228                __vector_offset_77 = DEFINED (__vector_dispatch_77)?(. - _ebase_address):__vector_offset_default
 *(.vector_77)
                0x9d000210                . = ALIGN (0x4)
                0x00000228                __vector_offset_78 = DEFINED (__vector_dispatch_78)?(. - _ebase_address):__vector_offset_default
 *(.vector_78)
                0x9d000210                . = ALIGN (0x4)
                0x00000228                __vector_offset_79 = DEFINED (__vector_dispatch_79)?(. - _ebase_address):__vector_offset_default
 *(.vector_79)
                0x9d000210                . = ALIGN (0x4)
                0x00000228                __vector_offset_80 = DEFINED (__vector_dispatch_80)?(. - _ebase_address):__vector_offset_default
 *(.vector_80)
                0x9d000210                . = ALIGN (0x4)
                0x00000228                __vector_offset_81 = DEFINED (__vector_dispatch_81)?(. - _ebase_address):__vector_offset_default
 *(.vector_81)
                0x9d000210                . = ALIGN (0x4)
                0x00000228                __vector_offset_82 = DEFINED (__vector_dispatch_82)?(. - _ebase_address):__vector_offset_default
 *(.vector_82)
                0x9d000210                . = ALIGN (0x4)
                0x00000228                __vector_offset_83 = DEFINED (__vector_dispatch_83)?(. - _ebase_address):__vector_offset_default
 *(.vector_83)
                0x9d000210                . = ALIGN (0x4)
                0x00000228                __vector_offset_84 = DEFINED (__vector_dispatch_84)?(. - _ebase_address):__vector_offset_default
 *(.vector_84)
                0x9d000210                . = ALIGN (0x4)
                0x00000228                __vector_offset_85 = DEFINED (__vector_dispatch_85)?(. - _ebase_address):__vector_offset_default
 *(.vector_85)
                0x9d000210                . = ALIGN (0x4)
                0x00000228                __vector_offset_86 = DEFINED (__vector_dispatch_86)?(. - _ebase_address):__vector_offset_default
 *(.vector_86)
                0x9d000210                . = ALIGN (0x4)
                0x00000228                __vector_offset_87 = DEFINED (__vector_dispatch_87)?(. - _ebase_address):__vector_offset_default
 *(.vector_87)
                0x9d000210                . = ALIGN (0x4)
                0x00000228                __vector_offset_88 = DEFINED (__vector_dispatch_88)?(. - _ebase_address):__vector_offset_default
 *(.vector_88)
                0x9d000210                . = ALIGN (0x4)
                0x00000228                __vector_offset_89 = DEFINED (__vector_dispatch_89)?(. - _ebase_address):__vector_offset_default
 *(.vector_89)
                0x9d000210                . = ALIGN (0x4)
                0x00000228                __vector_offset_90 = DEFINED (__vector_dispatch_90)?(. - _ebase_address):__vector_offset_default
 *(.vector_90)
                0x9d000210                . = ALIGN (0x4)
                0x00000228                __vector_offset_91 = DEFINED (__vector_dispatch_91)?(. - _ebase_address):__vector_offset_default
 *(.vector_91)
                0x9d000210                . = ALIGN (0x4)
                0x00000228                __vector_offset_92 = DEFINED (__vector_dispatch_92)?(. - _ebase_address):__vector_offset_default
 *(.vector_92)
                0x9d000210                . = ALIGN (0x4)
                0x00000228                __vector_offset_93 = DEFINED (__vector_dispatch_93)?(. - _ebase_address):__vector_offset_default
 *(.vector_93)
                0x9d000210                . = ALIGN (0x4)
                0x00000228                __vector_offset_94 = DEFINED (__vector_dispatch_94)?(. - _ebase_address):__vector_offset_default
 *(.vector_94)
                0x9d000210                . = ALIGN (0x4)
                0x00000228                __vector_offset_95 = DEFINED (__vector_dispatch_95)?(. - _ebase_address):__vector_offset_default
 *(.vector_95)
                0x9d000210                . = ALIGN (0x4)
                0x00000228                __vector_offset_96 = DEFINED (__vector_dispatch_96)?(. - _ebase_address):__vector_offset_default
 *(.vector_96)
                0x9d000210                . = ALIGN (0x4)
                0x00000228                __vector_offset_97 = DEFINED (__vector_dispatch_97)?(. - _ebase_address):__vector_offset_default
 *(.vector_97)
                0x9d000210                . = ALIGN (0x4)
                0x00000228                __vector_offset_98 = DEFINED (__vector_dispatch_98)?(. - _ebase_address):__vector_offset_default
 *(.vector_98)
                0x9d000210                . = ALIGN (0x4)
                0x00000228                __vector_offset_99 = DEFINED (__vector_dispatch_99)?(. - _ebase_address):__vector_offset_default
 *(.vector_99)
                0x9d000210                . = ALIGN (0x4)
                0x00000228                __vector_offset_100 = DEFINED (__vector_dispatch_100)?(. - _ebase_address):__vector_offset_default
 *(.vector_100)
                0x9d000210                . = ALIGN (0x4)
                0x00000228                __vector_offset_101 = DEFINED (__vector_dispatch_101)?(. - _ebase_address):__vector_offset_default
 *(.vector_101)
                0x9d000210                . = ALIGN (0x4)
                0x00000228                __vector_offset_102 = DEFINED (__vector_dispatch_102)?(. - _ebase_address):__vector_offset_default
 *(.vector_102)
                0x9d000210                . = ALIGN (0x4)
                0x00000228                __vector_offset_103 = DEFINED (__vector_dispatch_103)?(. - _ebase_address):__vector_offset_default
 *(.vector_103)
                0x9d000210                . = ALIGN (0x4)
                0x00000228                __vector_offset_104 = DEFINED (__vector_dispatch_104)?(. - _ebase_address):__vector_offset_default
 *(.vector_104)
                0x9d000210                . = ALIGN (0x4)
                0x00000228                __vector_offset_105 = DEFINED (__vector_dispatch_105)?(. - _ebase_address):__vector_offset_default
 *(.vector_105)
                0x9d000210                . = ALIGN (0x4)
                0x00000228                __vector_offset_106 = DEFINED (__vector_dispatch_106)?(. - _ebase_address):__vector_offset_default
 *(.vector_106)
                0x9d000210                . = ALIGN (0x4)
                0x00000228                __vector_offset_107 = DEFINED (__vector_dispatch_107)?(. - _ebase_address):__vector_offset_default
 *(.vector_107)
                0x9d000210                . = ALIGN (0x4)
                0x00000228                __vector_offset_108 = DEFINED (__vector_dispatch_108)?(. - _ebase_address):__vector_offset_default
 *(.vector_108)
                0x9d000210                . = ALIGN (0x4)
                0x00000228                __vector_offset_109 = DEFINED (__vector_dispatch_109)?(. - _ebase_address):__vector_offset_default
 *(.vector_109)
                0x9d000210                . = ALIGN (0x4)
                0x00000228                __vector_offset_110 = DEFINED (__vector_dispatch_110)?(. - _ebase_address):__vector_offset_default
 *(.vector_110)
                0x9d000210                . = ALIGN (0x4)
                0x00000228                __vector_offset_111 = DEFINED (__vector_dispatch_111)?(. - _ebase_address):__vector_offset_default
 *(.vector_111)
                0x9d000210                . = ALIGN (0x4)
                0x00000210                __vector_offset_112 = DEFINED (__vector_dispatch_112)?(. - _ebase_address):__vector_offset_default
 *(.vector_112)
 .vector_112    0x9d000210        0x8 build/FFT/production/_ext/1272119167/interrupts.o
                0x9d000210                __vector_dispatch_112
                0x9d000218                . = ALIGN (0x4)
                0x00000218                __vector_offset_113 = DEFINED (__vector_dispatch_113)?(. - _ebase_address):__vector_offset_default
 *(.vector_113)
 .vector_113    0x9d000218        0x8 build/FFT/production/_ext/1272119167/interrupts.o
                0x9d000218                __vector_dispatch_113
                0x9d000220                . = ALIGN (0x4)
                0x00000220                __vector_offset_114 = DEFINED (__vector_dispatch_114)?(. - _ebase_address):__vector_offset_default
 *(.vector_114)
 .vector_114    0x9d000220        0x8 build/FFT/production/_ext/1272119167/interrupts.o
                0x9d000220                __vector_dispatch_114
                0x9d000228                . = ALIGN (0x4)
                0x00000228                __vector_offset_115 = DEFINED (__vector_dispatch_115)?(. - _ebase_address):__vector_offset_default
 *(.vector_115)
                0x9d000228                . = ALIGN (0x4)
                0x00000228                __vector_offset_116 = DEFINED (__vector_dispatch_116)?(. - _ebase_address):__vector_offset_default
 *(.vector_116)
                0x9d000228                . = ALIGN (0x4)
                0x00000228                __vector_offset_117 = DEFINED (__vector_dispatch_117)?(. - _ebase_address):__vector_offset_default
 *(.vector_117)
                0x9d000228                . = ALIGN (0x4)
                0x00000228                __vector_offset_118 = DEFINED (__vector_dispatch_118)?(. - _ebase_address):__vector_offset_default
 *(.vector_118)
                0x9d000228                . = ALIGN (0x4)
                0x00000228                __vector_offset_119 = DEFINED (__vector_dispatch_119)?(. - _ebase_address):__vector_offset_default
 *(.vector_119)
                0x9d000228                . = ALIGN (0x4)
                0x00000228                __vector_offset_120 = DEFINED (__vector_dispatch_120)?(. - _ebase_address):__vector_offset_default
 *(.vector_120)
                0x9d000228                . = ALIGN (0x4)
                0x00000228                __vector_offset_121 = DEFINED (__vector_dispatch_121)?(. - _ebase_address):__vector_offset_default
 *(.vector_121)
                0x9d000228                . = ALIGN (0x4)
                0x00000228                __vector_offset_122 = DEFINED (__vector_dispatch_122)?(. - _ebase_address):__vector_offset_default
 *(.vector_122)
                0x9d000228                . = ALIGN (0x4)
                0x00000228                __vector_offset_123 = DEFINED (__vector_dispatch_123)?(. - _ebase_address):__vector_offset_default
 *(.vector_123)
                0x9d000228                . = ALIGN (0x4)
                0x00000228                __vector_offset_124 = DEFINED (__vector_dispatch_124)?(. - _ebase_address):__vector_offset_default
 *(.vector_124)
                0x9d000228                . = ALIGN (0x4)
                0x00000228                __vector_offset_125 = DEFINED (__vector_dispatch_125)?(. - _ebase_address):__vector_offset_default
 *(.vector_125)
                0x9d000228                . = ALIGN (0x4)
                0x00000228                __vector_offset_126 = DEFINED (__vector_dispatch_126)?(. - _ebase_address):__vector_offset_default
 *(.vector_126)
                0x9d000228                . = ALIGN (0x4)
                0x00000228                __vector_offset_127 = DEFINED (__vector_dispatch_127)?(. - _ebase_address):__vector_offset_default
 *(.vector_127)
                0x9d000228                . = ALIGN (0x4)
                0x00000228                __vector_offset_128 = DEFINED (__vector_dispatch_128)?(. - _ebase_address):__vector_offset_default
 *(.vector_128)
                0x9d000228                . = ALIGN (0x4)
                0x00000228                __vector_offset_129 = DEFINED (__vector_dispatch_129)?(. - _ebase_address):__vector_offset_default
 *(.vector_129)
                0x9d000228                . = ALIGN (0x4)
                0x00000228                __vector_offset_130 = DEFINED (__vector_dispatch_130)?(. - _ebase_address):__vector_offset_default
 *(.vector_130)
                0x9d000228                . = ALIGN (0x4)
                0x00000228                __vector_offset_131 = DEFINED (__vector_dispatch_131)?(. - _ebase_address):__vector_offset_default
 *(.vector_131)
                0x9d000228                . = ALIGN (0x4)
                0x00000228                __vector_offset_132 = DEFINED (__vector_dispatch_132)?(. - _ebase_address):__vector_offset_default
 *(.vector_132)
                0x9d000228                . = ALIGN (0x4)
                0x00000228                __vector_offset_133 = DEFINED (__vector_dispatch_133)?(. - _ebase_address):__vector_offset_default
 *(.vector_133)
                0x9d000228                . = ALIGN (0x4)
                0x00000228                __vector_offset_134 = DEFINED (__vector_dispatch_134)?(. - _ebase_address):__vector_offset_default
 *(.vector_134)
                0x9d000228                . = ALIGN (0x4)
                0x00000228                __vector_offset_135 = DEFINED (__vector_dispatch_135)?(. - _ebase_address):__vector_offset_default
 *(.vector_135)
                0x9d000228                . = ALIGN (0x4)
                0x00000228                __vector_offset_136 = DEFINED (__vector_dispatch_136)?(. - _ebase_address):__vector_offset_default
 *(.vector_136)
                0x9d000228                . = ALIGN (0x4)
                0x00000228                __vector_offset_137 = DEFINED (__vector_dispatch_137)?(. - _ebase_address):__vector_offset_default
 *(.vector_137)
                0x9d000228                . = ALIGN (0x4)
                0x00000228                __vector_offset_138 = DEFINED (__vector_dispatch_138)?(. - _ebase_address):__vector_offset_default
 *(.vector_138)
                0x9d000228                . = ALIGN (0x4)
                0x00000228                __vector_offset_139 = DEFINED (__vector_dispatch_139)?(. - _ebase_address):__vector_offset_default
 *(.vector_139)
                0x9d000228                . = ALIGN (0x4)
                0x00000228                __vector_offset_140 = DEFINED (__vector_dispatch_140)?(. - _ebase_address):__vector_offset_default
 *(.vector_140)
                0x9d000228                . = ALIGN (0x4)
                0x00000228                __vector_offset_141 = DEFINED (__vector_dispatch_141)?(. - _ebase_address):__vector_offset_default
 *(.vector_141)
                0x9d000228                . = ALIGN (0x4)
                0x00000228                __vector_offset_142 = DEFINED (__vector_dispatch_142)?(. - _ebase_address):__vector_offset_default
 *(.vector_142)
                0x9d000228                . = ALIGN (0x4)
                0x00000228                __vector_offset_143 = DEFINED (__vector_dispatch_143)?(. - _ebase_address):__vector_offset_default
 *(.vector_143)
                0x9d000228                . = ALIGN (0x4)
                0x00000228                __vector_offset_144 = DEFINED (__vector_dispatch_144)?(. - _ebase_address):__vector_offset_default
 *(.vector_144)
                0x9d000228                . = ALIGN (0x4)
                0x00000228                __vector_offset_145 = DEFINED (__vector_dispatch_145)?(. - _ebase_address):__vector_offset_default
 *(.vector_145)
                0x9d000228                . = ALIGN (0x4)
                0x00000228                __vector_offset_146 = DEFINED (__vector_dispatch_146)?(. - _ebase_address):__vector_offset_default
 *(.vector_146)
                0x9d000228                . = ALIGN (0x4)
                0x00000228                __vector_offset_147 = DEFINED (__vector_dispatch_147)?(. - _ebase_address):__vector_offset_default
 *(.vector_147)
                0x9d000228                . = ALIGN (0x4)
                0x00000228                __vector_offset_148 = DEFINED (__vector_dispatch_148)?(. - _ebase_address):__vector_offset_default
 *(.vector_148)
                0x9d000228                . = ALIGN (0x4)
                0x00000228                __vector_offset_149 = DEFINED (__vector_dispatch_149)?(. - _ebase_address):__vector_offset_default
 *(.vector_149)
                0x9d000228                . = ALIGN (0x4)
                0x00000228                __vector_offset_150 = DEFINED (__vector_dispatch_150)?(. - _ebase_address):__vector_offset_default
 *(.vector_150)
                0x9d000228                . = ALIGN (0x4)
                0x00000228                __vector_offset_151 = DEFINED (__vector_dispatch_151)?(. - _ebase_address):__vector_offset_default
 *(.vector_151)
                0x9d000228                . = ALIGN (0x4)
                0x00000228                __vector_offset_152 = DEFINED (__vector_dispatch_152)?(. - _ebase_address):__vector_offset_default
 *(.vector_152)
                0x9d000228                . = ALIGN (0x4)
                0x00000228                __vector_offset_153 = DEFINED (__vector_dispatch_153)?(. - _ebase_address):__vector_offset_default
 *(.vector_153)
                0x9d000228                . = ALIGN (0x4)
                0x00000228                __vector_offset_154 = DEFINED (__vector_dispatch_154)?(. - _ebase_address):__vector_offset_default
 *(.vector_154)
                0x9d000228                . = ALIGN (0x4)
                0x00000228                __vector_offset_155 = DEFINED (__vector_dispatch_155)?(. - _ebase_address):__vector_offset_default
 *(.vector_155)
                0x9d000228                . = ALIGN (0x4)
                0x00000228                __vector_offset_156 = DEFINED (__vector_dispatch_156)?(. - _ebase_address):__vector_offset_default
 *(.vector_156)
                0x9d000228                . = ALIGN (0x4)
                0x00000228                __vector_offset_157 = DEFINED (__vector_dispatch_157)?(. - _ebase_address):__vector_offset_default
 *(.vector_157)
                0x9d000228                . = ALIGN (0x4)
                0x00000228                __vector_offset_158 = DEFINED (__vector_dispatch_158)?(. - _ebase_address):__vector_offset_default
 *(.vector_158)
                0x9d000228                . = ALIGN (0x4)
                0x00000228                __vector_offset_159 = DEFINED (__vector_dispatch_159)?(. - _ebase_address):__vector_offset_default
 *(.vector_159)
                0x9d000228                . = ALIGN (0x4)
                0x00000228                __vector_offset_160 = DEFINED (__vector_dispatch_160)?(. - _ebase_address):__vector_offset_default
 *(.vector_160)
                0x9d000228                . = ALIGN (0x4)
                0x00000228                __vector_offset_161 = DEFINED (__vector_dispatch_161)?(. - _ebase_address):__vector_offset_default
 *(.vector_161)
                0x9d000228                . = ALIGN (0x4)
                0x00000228                __vector_offset_162 = DEFINED (__vector_dispatch_162)?(. - _ebase_address):__vector_offset_default
 *(.vector_162)
                0x9d000228                . = ALIGN (0x4)
                0x00000228                __vector_offset_163 = DEFINED (__vector_dispatch_163)?(. - _ebase_address):__vector_offset_default
 *(.vector_163)
                0x9d000228                . = ALIGN (0x4)
                0x00000228                __vector_offset_164 = DEFINED (__vector_dispatch_164)?(. - _ebase_address):__vector_offset_default
 *(.vector_164)
                0x9d000228                . = ALIGN (0x4)
                0x00000228                __vector_offset_165 = DEFINED (__vector_dispatch_165)?(. - _ebase_address):__vector_offset_default
 *(.vector_165)
                0x9d000228                . = ALIGN (0x4)
                0x00000228                __vector_offset_166 = DEFINED (__vector_dispatch_166)?(. - _ebase_address):__vector_offset_default
 *(.vector_166)
                0x9d000228                . = ALIGN (0x4)
                0x00000228                __vector_offset_167 = DEFINED (__vector_dispatch_167)?(. - _ebase_address):__vector_offset_default
 *(.vector_167)
                0x9d000228                . = ALIGN (0x4)
                0x00000228                __vector_offset_168 = DEFINED (__vector_dispatch_168)?(. - _ebase_address):__vector_offset_default
 *(.vector_168)
                0x9d000228                . = ALIGN (0x4)
                0x00000228                __vector_offset_169 = DEFINED (__vector_dispatch_169)?(. - _ebase_address):__vector_offset_default
 *(.vector_169)
                0x9d000228                . = ALIGN (0x4)
                0x00000228                __vector_offset_170 = DEFINED (__vector_dispatch_170)?(. - _ebase_address):__vector_offset_default
 *(.vector_170)
                0x9d000228                . = ALIGN (0x4)
                0x00000228                __vector_offset_171 = DEFINED (__vector_dispatch_171)?(. - _ebase_address):__vector_offset_default
 *(.vector_171)
                0x9d000228                . = ALIGN (0x4)
                0x00000228                __vector_offset_172 = DEFINED (__vector_dispatch_172)?(. - _ebase_address):__vector_offset_default
 *(.vector_172)
                0x9d000228                . = ALIGN (0x4)
                0x00000228                __vector_offset_173 = DEFINED (__vector_dispatch_173)?(. - _ebase_address):__vector_offset_default
 *(.vector_173)
                0x9d000228                . = ALIGN (0x4)
                0x00000228                __vector_offset_174 = DEFINED (__vector_dispatch_174)?(. - _ebase_address):__vector_offset_default
 *(.vector_174)
                0x9d000228                . = ALIGN (0x4)
                0x00000228                __vector_offset_175 = DEFINED (__vector_dispatch_175)?(. - _ebase_address):__vector_offset_default
 *(.vector_175)
                0x9d000228                . = ALIGN (0x4)
                0x00000228                __vector_offset_176 = DEFINED (__vector_dispatch_176)?(. - _ebase_address):__vector_offset_default
 *(.vector_176)
                0x9d000228                . = ALIGN (0x4)
                0x00000228                __vector_offset_177 = DEFINED (__vector_dispatch_177)?(. - _ebase_address):__vector_offset_default
 *(.vector_177)
                0x9d000228                . = ALIGN (0x4)
                0x00000228                __vector_offset_178 = DEFINED (__vector_dispatch_178)?(. - _ebase_address):__vector_offset_default
 *(.vector_178)
                0x9d000228                . = ALIGN (0x4)
                0x00000228                __vector_offset_179 = DEFINED (__vector_dispatch_179)?(. - _ebase_address):__vector_offset_default
 *(.vector_179)
                0x9d000228                . = ALIGN (0x4)
                0x00000228                __vector_offset_180 = DEFINED (__vector_dispatch_180)?(. - _ebase_address):__vector_offset_default
 *(.vector_180)
                0x9d000228                . = ALIGN (0x4)
                0x00000228                __vector_offset_181 = DEFINED (__vector_dispatch_181)?(. - _ebase_address):__vector_offset_default
 *(.vector_181)
                0x9d000228                . = ALIGN (0x4)
                0x00000228                __vector_offset_182 = DEFINED (__vector_dispatch_182)?(. - _ebase_address):__vector_offset_default
 *(.vector_182)
                0x9d000228                . = ALIGN (0x4)
                0x00000228                __vector_offset_183 = DEFINED (__vector_dispatch_183)?(. - _ebase_address):__vector_offset_default
 *(.vector_183)
                0x9d000228                . = ALIGN (0x4)
                0x00000228                __vector_offset_184 = DEFINED (__vector_dispatch_184)?(. - _ebase_address):__vector_offset_default
 *(.vector_184)
                0x9d000228                . = ALIGN (0x4)
                0x00000228                __vector_offset_185 = DEFINED (__vector_dispatch_185)?(. - _ebase_address):__vector_offset_default
 *(.vector_185)
                0x9d000228                . = ALIGN (0x4)
                0x00000228                __vector_offset_186 = DEFINED (__vector_dispatch_186)?(. - _ebase_address):__vector_offset_default
 *(.vector_186)
                0x9d000228                . = ALIGN (0x4)
                0x00000228                __vector_offset_187 = DEFINED (__vector_dispatch_187)?(. - _ebase_address):__vector_offset_default
 *(.vector_187)
                0x9d000228                . = ALIGN (0x4)
                0x00000228                __vector_offset_188 = DEFINED (__vector_dispatch_188)?(. - _ebase_address):__vector_offset_default
 *(.vector_188)
                0x9d000228                . = ALIGN (0x4)
                0x00000228                __vector_offset_189 = DEFINED (__vector_dispatch_189)?(. - _ebase_address):__vector_offset_default
 *(.vector_189)
                0x9d000228                . = ALIGN (0x4)
                0x00000228                __vector_offset_190 = DEFINED (__vector_dispatch_190)?(. - _ebase_address):__vector_offset_default
 *(.vector_190)
                0x9d000228                . = ALIGN (0x4)
                0x00000228                __vector_offset_191 = DEFINED (__vector_dispatch_191)?(. - _ebase_address):__vector_offset_default
 *(.vector_191)
                0x9d000228                . = ALIGN (0x4)
                0x00000228                __vector_offset_192 = DEFINED (__vector_dispatch_192)?(. - _ebase_address):__vector_offset_default
 *(.vector_192)
                0x9d000228                . = ALIGN (0x4)
                0x00000228                __vector_offset_193 = DEFINED (__vector_dispatch_193)?(. - _ebase_address):__vector_offset_default
 *(.vector_193)
                0x9d000228                . = ALIGN (0x4)
                0x00000228                __vector_offset_194 = DEFINED (__vector_dispatch_194)?(. - _ebase_address):__vector_offset_default
 *(.vector_194)
                0x9d000228                . = ALIGN (0x4)
                0x00000228                __vector_offset_195 = DEFINED (__vector_dispatch_195)?(. - _ebase_address):__vector_offset_default
 *(.vector_195)
                0x9d000228                . = ALIGN (0x4)
                0x00000228                __vector_offset_196 = DEFINED (__vector_dispatch_196)?(. - _ebase_address):__vector_offset_default
 *(.vector_196)
                0x9d000228                . = ALIGN (0x4)
                0x00000228                __vector_offset_197 = DEFINED (__vector_dispatch_197)?(. - _ebase_address):__vector_offset_default
 *(.vector_197)
                0x9d000228                . = ALIGN (0x4)
                0x00000228                __vector_offset_198 = DEFINED (__vector_dispatch_198)?(. - _ebase_address):__vector_offset_default
 *(.vector_198)
                0x9d000228                . = ALIGN (0x4)
                0x00000228                __vector_offset_199 = DEFINED (__vector_dispatch_199)?(. - _ebase_address):__vector_offset_default
 *(.vector_199)
                0x9d000228                . = ALIGN (0x4)
                0x00000228                __vector_offset_200 = DEFINED (__vector_dispatch_200)?(. - _ebase_address):__vector_offset_default
 *(.vector_200)
                0x9d000228                . = ALIGN (0x4)
                0x00000228                __vector_offset_201 = DEFINED (__vector_dispatch_201)?(. - _ebase_address):__vector_offset_default
 *(.vector_201)
                0x9d000228                . = ALIGN (0x4)
                0x00000228                __vector_offset_202 = DEFINED (__vector_dispatch_202)?(. - _ebase_address):__vector_offset_default
 *(.vector_202)
                0x9d000228                . = ALIGN (0x4)
                0x00000228                __vector_offset_203 = DEFINED (__vector_dispatch_203)?(. - _ebase_address):__vector_offset_default
 *(.vector_203)
                0x9d000228                . = ALIGN (0x4)
                0x00000228                __vector_offset_204 = DEFINED (__vector_dispatch_204)?(. - _ebase_address):__vector_offset_default
 *(.vector_204)
                0x9d000228                . = ALIGN (0x4)
                0x00000228                __vector_offset_205 = DEFINED (__vector_dispatch_205)?(. - _ebase_address):__vector_offset_default
 *(.vector_205)
                0x9d000228                . = ALIGN (0x4)
                0x00000228                __vector_offset_206 = DEFINED (__vector_dispatch_206)?(. - _ebase_address):__vector_offset_default
 *(.vector_206)
                0x9d000228                . = ALIGN (0x4)
                0x00000228                __vector_offset_207 = DEFINED (__vector_dispatch_207)?(. - _ebase_address):__vector_offset_default
 *(.vector_207)
                0x9d000228                . = ALIGN (0x4)
                0x00000228                __vector_offset_208 = DEFINED (__vector_dispatch_208)?(. - _ebase_address):__vector_offset_default
 *(.vector_208)
                0x9d000228                . = ALIGN (0x4)
                0x00000228                __vector_offset_209 = DEFINED (__vector_dispatch_209)?(. - _ebase_address):__vector_offset_default
 *(.vector_209)
                0x9d000228                . = ALIGN (0x4)
                0x00000228                __vector_offset_210 = DEFINED (__vector_dispatch_210)?(. - _ebase_address):__vector_offset_default
 *(.vector_210)
                0x9d000228                . = ALIGN (0x4)
                0x00000228                __vector_offset_211 = DEFINED (__vector_dispatch_211)?(. - _ebase_address):__vector_offset_default
 *(.vector_211)
                0x9d000228                . = ALIGN (0x4)
                0x00000228                __vector_offset_212 = DEFINED (__vector_dispatch_212)?(. - _ebase_address):__vector_offset_default
 *(.vector_212)
                0x9d000228                . = ALIGN (0x4)
                0x00000228                __vector_offset_213 = DEFINED (__vector_dispatch_213)?(. - _ebase_address):__vector_offset_default
 *(.vector_213)
                0x9d000228                . = ALIGN (0x4)
                0x00000228                __vector_offset_214 = DEFINED (__vector_dispatch_214)?(. - _ebase_address):__vector_offset_default
 *(.vector_214)
                0x9d000228                . = ALIGN (0x4)
                0x00000228                __vector_offset_215 = DEFINED (__vector_dispatch_215)?(. - _ebase_address):__vector_offset_default
 *(.vector_215)
                0x9d000228                . = ALIGN (0x4)
                0x00000228                __vector_offset_216 = DEFINED (__vector_dispatch_216)?(. - _ebase_address):__vector_offset_default
 *(.vector_216)
                0x9d000228                . = ALIGN (0x4)
                0x00000228                __vector_offset_217 = DEFINED (__vector_dispatch_217)?(. - _ebase_address):__vector_offset_default
 *(.vector_217)
                0x9d000228                . = ALIGN (0x4)
                0x00000228                __vector_offset_218 = DEFINED (__vector_dispatch_218)?(. - _ebase_address):__vector_offset_default
 *(.vector_218)
                0x9d000228                . = ALIGN (0x4)
                0x00000228                __vector_offset_219 = DEFINED (__vector_dispatch_219)?(. - _ebase_address):__vector_offset_default
 *(.vector_219)
                0x9d000228                . = ALIGN (0x4)
                0x00000228                __vector_offset_220 = DEFINED (__vector_dispatch_220)?(. - _ebase_address):__vector_offset_default
 *(.vector_220)
                0x9d000228                . = ALIGN (0x4)
                0x00000228                __vector_offset_221 = DEFINED (__vector_dispatch_221)?(. - _ebase_address):__vector_offset_default
 *(.vector_221)
                0x9d000228                . = ALIGN (0x4)
                0x00000228                __vector_offset_222 = DEFINED (__vector_dispatch_222)?(. - _ebase_address):__vector_offset_default
 *(.vector_222)
                0x9d000228                . = ALIGN (0x4)
                0x00000228                __vector_offset_223 = DEFINED (__vector_dispatch_223)?(. - _ebase_address):__vector_offset_default
 *(.vector_223)
                0x9d000228                . = ALIGN (0x4)
                0x00000228                __vector_offset_224 = DEFINED (__vector_dispatch_224)?(. - _ebase_address):__vector_offset_default
 *(.vector_224)
                0x9d000228                . = ALIGN (0x4)
                0x00000228                __vector_offset_225 = DEFINED (__vector_dispatch_225)?(. - _ebase_address):__vector_offset_default
 *(.vector_225)
                0x9d000228                . = ALIGN (0x4)
                0x00000228                __vector_offset_226 = DEFINED (__vector_dispatch_226)?(. - _ebase_address):__vector_offset_default
 *(.vector_226)
                0x9d000228                . = ALIGN (0x4)
                0x00000228                __vector_offset_227 = DEFINED (__vector_dispatch_227)?(. - _ebase_address):__vector_offset_default
 *(.vector_227)
                0x9d000228                . = ALIGN (0x4)
                0x00000228                __vector_offset_228 = DEFINED (__vector_dispatch_228)?(. - _ebase_address):__vector_offset_default
 *(.vector_228)
                0x9d000228                . = ALIGN (0x4)
                0x00000228                __vector_offset_229 = DEFINED (__vector_dispatch_229)?(. - _ebase_address):__vector_offset_default
 *(.vector_229)
                0x9d000228                . = ALIGN (0x4)
                0x00000228                __vector_offset_230 = DEFINED (__vector_dispatch_230)?(. - _ebase_address):__vector_offset_default
 *(.vector_230)
                0x9d000228                . = ALIGN (0x4)
                0x00000228                __vector_offset_231 = DEFINED (__vector_dispatch_231)?(. - _ebase_address):__vector_offset_default
 *(.vector_231)
                0x9d000228                . = ALIGN (0x4)
                0x00000228                __vector_offset_232 = DEFINED (__vector_dispatch_232)?(. - _ebase_address):__vector_offset_default
 *(.vector_232)
                0x9d000228                . = ALIGN (0x4)
                0x00000228                __vector_offset_233 = DEFINED (__vector_dispatch_233)?(. - _ebase_address):__vector_offset_default
 *(.vector_233)
                0x9d000228                . = ALIGN (0x4)
                0x00000228                __vector_offset_234 = DEFINED (__vector_dispatch_234)?(. - _ebase_address):__vector_offset_default
 *(.vector_234)
                0x9d000228                . = ALIGN (0x4)
                0x00000228                __vector_offset_235 = DEFINED (__vector_dispatch_235)?(. - _ebase_address):__vector_offset_default
 *(.vector_235)
                0x9d000228                . = ALIGN (0x4)
                0x00000228                __vector_offset_236 = DEFINED (__vector_dispatch_236)?(. - _ebase_address):__vector_offset_default
 *(.vector_236)
                0x9d000228                . = ALIGN (0x4)
                0x00000228                __vector_offset_237 = DEFINED (__vector_dispatch_237)?(. - _ebase_address):__vector_offset_default
 *(.vector_237)
                0x9d000228                . = ALIGN (0x4)
                0x00000228                __vector_offset_238 = DEFINED (__vector_dispatch_238)?(. - _ebase_address):__vector_offset_default
 *(.vector_238)
                0x9d000228                . = ALIGN (0x4)
                0x00000228                __vector_offset_239 = DEFINED (__vector_dispatch_239)?(. - _ebase_address):__vector_offset_default
 *(.vector_239)
                0x9d000228                . = ALIGN (0x4)
                0x00000228                __vector_offset_240 = DEFINED (__vector_dispatch_240)?(. - _ebase_address):__vector_offset_default
 *(.vector_240)
                0x9d000228                . = ALIGN (0x4)
                0x00000228                __vector_offset_241 = DEFINED (__vector_dispatch_241)?(. - _ebase_address):__vector_offset_default
 *(.vector_241)
                0x9d000228                . = ALIGN (0x4)
                0x00000228                __vector_offset_242 = DEFINED (__vector_dispatch_242)?(. - _ebase_address):__vector_offset_default
 *(.vector_242)
                0x9d000228                . = ALIGN (0x4)
                0x00000228                __vector_offset_243 = DEFINED (__vector_dispatch_243)?(. - _ebase_address):__vector_offset_default
 *(.vector_243)
                0x9d000228                . = ALIGN (0x4)
                0x00000228                __vector_offset_244 = DEFINED (__vector_dispatch_244)?(. - _ebase_address):__vector_offset_default
 *(.vector_244)
                0x9d000228                . = ALIGN (0x4)
                0x00000228                __vector_offset_245 = DEFINED (__vector_dispatch_245)?(. - _ebase_address):__vector_offset_default
 *(.vector_245)
                0x9d000228                . = ALIGN (0x4)
                0x00000228                __vector_offset_246 = DEFINED (__vector_dispatch_246)?(. - _ebase_address):__vector_offset_default
 *(.vector_246)
                0x9d000228                . = ALIGN (0x4)
                0x00000228                __vector_offset_247 = DEFINED (__vector_dispatch_247)?(. - _ebase_address):__vector_offset_default
 *(.vector_247)
                0x9d000228                . = ALIGN (0x4)
                0x00000228                __vector_offset_248 = DEFINED (__vector_dispatch_248)?(. - _ebase_address):__vector_offset_default
 *(.vector_248)
                0x9d000228                . = ALIGN (0x4)
                0x00000228                __vector_offset_249 = DEFINED (__vector_dispatch_249)?(. - _ebase_address):__vector_offset_default
 *(.vector_249)
                0x9d000228                . = ALIGN (0x4)
                0x00000228                __vector_offset_250 = DEFINED (__vector_dispatch_250)?(. - _ebase_address):__vector_offset_default
 *(.vector_250)
                0x9d000228                . = ALIGN (0x4)
                0x00000228                __vector_offset_251 = DEFINED (__vector_dispatch_251)?(. - _ebase_address):__vector_offset_default
 *(.vector_251)
                0x9d000228                . = ALIGN (0x4)
                0x00000228                __vector_offset_252 = DEFINED (__vector_dispatch_252)?(. - _ebase_address):__vector_offset_default
 *(.vector_252)
                0x9d000228                . = ALIGN (0x4)
                0x00000228                __vector_offset_253 = DEFINED (__vector_dispatch_253)?(. - _ebase_address):__vector_offset_default
 *(.vector_253)
                0x9d000228                . = ALIGN (0x4)
                0x00000228                __vector_offset_254 = DEFINED (__vector_dispatch_254)?(. - _ebase_address):__vector_offset_default
 *(.vector_254)
                0x9d000228                . = ALIGN (0x4)
                0x00000228                __vector_offset_255 = DEFINED (__vector_dispatch_255)?(. - _ebase_address):__vector_offset_default
 *(.vector_255)
                0x9d000228                . = ALIGN (0x4)
                0x00000228                __vector_offset_default = (. - _ebase_address)
 *(.vector_default)
 .vector_default
                0x9d000228       0x48 c:/program files (x86)/microchip/xc32/v2.20/bin/bin/../../lib/gcc/pic32mx/4.8.3/../../../../pic32mx/lib/fpu64\libpic32.a(defaultinterrupt.o)
                0x9d000228                _DefaultInterrupt

.startup
 *(.startup)

.text           0x9d000270        0x0
 *(.stub .gnu.linkonce.t.*)
 *(.text.*personality*)
 *(.mips16.fn.*)
 *(.mips16.call.*)
 *(.gnu.warning)
                0x9d000270                . = ALIGN (0x4)

.init           0x9d000270        0x0
 *crti.o(.init)
 *crtbegin.o(.init)
 *(EXCLUDE_FILE(*crtn.o *crtend?.o *crtend.o) .init)
 *crtend.o(.init)
 *crtn.o(.init)
                0x9d000270                . = ALIGN (0x4)

.fini           0x9d000270        0x0
 *(.fini)
                0x9d000270                . = ALIGN (0x4)

.preinit_array  0x9d000270        0x0
                0x9d000270                PROVIDE (__preinit_array_start, .)
 *(.preinit_array)
                0x9d000270                PROVIDE (__preinit_array_end, .)
                0x9d000270                . = ALIGN (0x4)

.init_array     0x9d000270        0x0
                0x9d000270                PROVIDE (__init_array_start, .)
 *(SORT(.init_array.*))
 *(.init_array)
                0x9d000270                PROVIDE (__init_array_end, .)
                0x9d000270                . = ALIGN (0x4)

.fini_array     0x9d000270        0x0
                0x9d000270                PROVIDE (__fini_array_start, .)
 *(SORT(.fini_array.*))
 *(.fini_array)
                0x9d000270                PROVIDE (__fini_array_end, .)
                0x9d000270                . = ALIGN (0x4)

.ctors          0x9d000270        0x0
 *crtbegin.o(.ctors)
 *crtbegin?.o(.ctors)
 *(EXCLUDE_FILE(*crtend?.o *crtend.o) .ctors)
 *(SORT(.ctors.*))
 *(.ctors)
                0x9d000270                . = ALIGN (0x4)

.dtors          0x9d000270        0x0
 *crtbegin.o(.dtors)
 *crtbegin?.o(.dtors)
 *(EXCLUDE_FILE(*crtend?.o *crtend.o) .dtors)
 *(SORT(.dtors.*))
 *(.dtors)
                0x9d000270                . = ALIGN (0x4)

.rodata         0x9d000270        0x0
 *(.gnu.linkonce.r.*)
 *(.rodata1)
                0x9d000270                . = ALIGN (0x4)

.sdata2         0x9fc004b0        0x0
 *(.sdata2 .sdata2.* .gnu.linkonce.s2.*)
                0x9fc004b0                . = ALIGN (0x4)

.sbss2          0x9fc004b0        0x0
 *(.sbss2 .sbss2.* .gnu.linkonce.sb2.*)
                0x9fc004b0                . = ALIGN (0x4)

.eh_frame_hdr
 *(.eh_frame_hdr)
                0x9fc004b0                . = ALIGN (0x4)

.eh_frame
 *(.eh_frame)
                0x9fc004b0                . = ALIGN (0x4)

.gcc_except_table
 *(.gcc_except_table .gcc_except_table.*)
                0x9fc004b0                . = ALIGN (0x4)

.dbg_data       0x80000000        0x0
                0x80000000                . = (. + DEFINED (_DEBUGGER)?0x200:0x0)
                0x80000000                . = (. + DEFINED (_DEBUGGER)?0x80:0x0)
                0x80000000                . = (. + DEFINED (_DEBUGGER)?0x100:0x0)

.jcr            0x80000000        0x0
 *(.jcr)
                0x80000000                . = ALIGN (0x4)

.eh_frame
 *(.eh_frame)
                0x80000000                . = ALIGN (0x4)

.gcc_except_table
 *(.gcc_except_table .gcc_except_table.*)
                0x80000000                . = ALIGN (0x4)

.persist        0x80000000        0x0
                0x80000000                _persist_begin = .
 *(.persist .persist.*)
                0x80000000                . = ALIGN (0x4)
                0x80000000                _persist_end = .

.data           0x80000000        0x0
 *(.gnu.linkonce.d.*)
 *(.data1)
                0x80000000                . = ALIGN (0x4)
                0x80000000                . = .
                0x80007ff0                _gp = (ALIGN (0x10) + 0x7ff0)

.got            0x80000000        0x0
 *(.got.plt)
 *(.got)
                0x80000000                . = ALIGN (0x4)

.sdata          0x80000000       0x60
                0x80000000                _sdata_begin = .
 *(.sdata .sdata.* .gnu.linkonce.s.*)
 .sdata         0x80000000        0xc build/FFT/production/_ext/1360937237/neopixel.o
                0x80000004                bitMask
                0x80000008                neoContext
                0x8000000a                neopixelDisabled
 .sdata         0x8000000c       0x30 build/FFT/production/_ext/1360937237/FFT.o
                0x8000000c                limitScaler
                0x80000010                midGroup
                0x80000011                lowGroup
                0x80000014                brightnessHigh
                0x80000018                brightnessMid
                0x8000001c                brightnessLow
                0x80000020                highLimit
                0x80000024                midLimit
                0x80000028                lowLimit
                0x8000002c                cutoffLimitHigh
                0x80000030                cutoffLimitMid
                0x80000034                cutoffLimitLow
                0x80000038                sampling_period_us
 .sdata         0x8000003c       0x24 c:/program files (x86)/microchip/xc32/v2.20/bin/bin/../../lib/gcc/pic32mx/4.8.3/../../../../pic32mx/lib/fpu64\libpic32.a(pic32_init_cache.o)
                0x8000003c                __pic32_icache_size
                0x80000040                __pic32_icache_linesize
                0x80000044                __pic32_icache_ways
                0x80000048                __pic32_dcache_size
                0x8000004c                __pic32_dcache_linesize
                0x80000050                __pic32_dcache_ways
                0x80000054                __pic32_scache_size
                0x80000058                __pic32_scache_linesize
                0x8000005c                __pic32_scache_ways
                0x80000060                . = ALIGN (0x4)
                0x80000060                _sdata_end = .

.lit8
 *(.lit8)

.lit4
 *(.lit4)
                0x80000060                . = ALIGN (0x4)
                0x80000060                _data_end = .
                0x80000060                _bss_begin = .

.sbss           0x80000060       0x40
                0x80000060                _sbss_begin = .
 *(.dynsbss)
 *(.sbss .sbss.* .gnu.linkonce.sb.*)
 .sbss          0x80000060        0x6 build/FFT/production/_ext/1360937237/neopixel.o
                0x80000060                pixelCounter
                0x80000062                periodCounter
                0x80000064                resetTriggered
                0x80000065                disableNEOUpdate
 .sbss          0x80000066        0x4 build/FFT/production/_ext/1360937237/FFT.o
                0x80000066                doFFT
                0x80000068                filterCounter
 .sbss          0x8000006a        0x2 build/FFT/production/_ext/1360937237/ADCGather.o
                0x8000006a                sampleCounter
 .sbss          0x8000006c        0xc build/FFT/production/_ext/1272119167/exceptions.o
 .sbss          0x80000078        0x8 build/FFT/production/_ext/1317415596/plib_tmr2.o
 .sbss          0x80000080        0x8 build/FFT/production/_ext/1317415596/plib_tmr3.o
 *(.scommon)
 .scommon       0x80000088        0x8 build/FFT/production/_ext/1360937237/FFT.o
                0x80000088                _samples
                0x8000008c                microseconds
 .scommon       0x80000090        0x5 build/FFT/production/_ext/1360937237/UART.o
                0x80000090                USART_0_Handle
                0x80000094                myAppObj
 *fill*         0x80000095        0x3 
 .scommon       0x80000098        0x4 build/FFT/production/_ext/1272119167/initialization.o
                0x80000098                sysObj
 .scommon       0x8000009c        0x4 build/FFT/production/_ext/1360937237/app.o
                0x8000009c                appData
                0x800000a0                _sbss_end = .
                0x800000a0                . = ALIGN (0x4)

.bss            0x800000a0      0x418
 *(.dynbss)
 *(COMMON)
 COMMON         0x800000a0      0x3e8 build/FFT/production/_ext/1360937237/neopixel.o
                0x800000a0                pixelData
 COMMON         0x80000488       0x30 build/FFT/production/_ext/2109807859/plib_uart1.o
                0x80000488                uart1Obj
                0x800004b8                . = ALIGN ((. != 0x0)?0x4:0x1)
                0x800004b8                . = ALIGN (0x4)
                0x800004b8                _end = .
                0x800004b8                _bss_end = .
                0x00080000                _bmxdudba_address = 0x80000
                0x00080000                _bmxdupba_address = 0x80000

/DISCARD/
 *(.pdr)
 *(.rel.dyn)
 *(.note.GNU-stack)
 *(.note.GNU-stack)
 *(.gnu_debuglink)
 *(.gnu.lto_*)
 *(.discard)

.gptab.sdata
 *(.gptab.data)
 *(.gptab.sdata)

.gptab.sbss
 *(.gptab.bss)
 *(.gptab.sbss)

.mdebug.abi32   0x00000000        0x0
 *(.mdebug.abi32)
 .mdebug.abi32  0x00000000        0x0 build/FFT/production/_ext/1360937237/neopixel.o
 .mdebug.abi32  0x00000000        0x0 build/FFT/production/_ext/1360937237/FFT.o
 .mdebug.abi32  0x00000000        0x0 build/FFT/production/_ext/1360937237/ADCGather.o
 .mdebug.abi32  0x00000000        0x0 build/FFT/production/_ext/1360937237/UART.o
 .mdebug.abi32  0x00000000        0x0 build/FFT/production/_ext/2109630876/plib_ocmp6.o
 .mdebug.abi32  0x00000000        0x0 build/FFT/production/_ext/1360937237/main.o
 .mdebug.abi32  0x00000000        0x0 build/FFT/production/_ext/1272119167/initialization.o
 .mdebug.abi32  0x00000000        0x0 build/FFT/production/_ext/1272119167/interrupts.o
 .mdebug.abi32  0x00000000        0x0 build/FFT/production/_ext/1272119167/exceptions.o
 .mdebug.abi32  0x00000000        0x0 build/FFT/production/_ext/489647995/xc32_monitor.o
 .mdebug.abi32  0x00000000        0x0 build/FFT/production/_ext/1317431971/plib_clk.o
 .mdebug.abi32  0x00000000        0x0 build/FFT/production/_ext/2109404916/plib_gpio.o
 .mdebug.abi32  0x00000000        0x0 build/FFT/production/_ext/2109351088/plib_evic.o
 .mdebug.abi32  0x00000000        0x0 build/FFT/production/_ext/2109630876/plib_ocmp4.o
 .mdebug.abi32  0x00000000        0x0 build/FFT/production/_ext/2109630876/plib_ocmp2.o
 .mdebug.abi32  0x00000000        0x0 build/FFT/production/_ext/2109630876/plib_ocmp3.o
 .mdebug.abi32  0x00000000        0x0 build/FFT/production/_ext/961138470/plib_adchs.o
 .mdebug.abi32  0x00000000        0x0 build/FFT/production/_ext/2109807859/plib_uart1.o
 .mdebug.abi32  0x00000000        0x0 build/FFT/production/_ext/1891070335/drv_usart.o
 .mdebug.abi32  0x00000000        0x0 build/FFT/production/_ext/1317415596/plib_tmr2.o
 .mdebug.abi32  0x00000000        0x0 build/FFT/production/_ext/1317415596/plib_tmr3.o
 .mdebug.abi32  0x00000000        0x0 build/FFT/production/_ext/504070962/sys_int.o
 .mdebug.abi32  0x00000000        0x0 build/FFT/production/_ext/980732774/sys_dma.o
 .mdebug.abi32  0x00000000        0x0 build/FFT/production/_ext/1360937237/app.o
 .mdebug.abi32  0x00000000        0x0 build/FFT/production/_ext/1272119167/tasks.o
 .mdebug.abi32  0x00000000        0x0 c:/program files (x86)/microchip/xc32/v2.20/bin/bin/../../lib/gcc/pic32mx/4.8.3/../../../../pic32mx/lib/fpu64\libpic32.a(default-bootstrap-exception-handler.o)
 .mdebug.abi32  0x00000000        0x0 c:/program files (x86)/microchip/xc32/v2.20/bin/bin/../../lib/gcc/pic32mx/4.8.3/../../../../pic32mx/lib/fpu64\libpic32.a(default-on-reset.o)
 .mdebug.abi32  0x00000000        0x0 c:/program files (x86)/microchip/xc32/v2.20/bin/bin/../../lib/gcc/pic32mx/4.8.3/../../../../pic32mx/lib/fpu64\libpic32.a(default-on-bootstrap.o)
 .mdebug.abi32  0x00000000        0x0 c:/program files (x86)/microchip/xc32/v2.20/bin/bin/../../lib/gcc/pic32mx/4.8.3/../../../../pic32mx/lib/fpu64\libpic32.a(defaultinterrupt.o)
 .mdebug.abi32  0x00000000        0x0 c:/program files (x86)/microchip/xc32/v2.20/bin/bin/../../lib/gcc/pic32mx/4.8.3/../../../../pic32mx/lib/fpu64\libpic32.a(default-cache-err-exception-handler.o)
 .mdebug.abi32  0x00000000        0x0 c:/program files (x86)/microchip/xc32/v2.20/bin/bin/../../lib/gcc/pic32mx/4.8.3/../../../../pic32mx/lib/fpu64\libpic32.a(default-simple-tlb-refill-exception-handler.o)
 .mdebug.abi32  0x00000000        0x0 c:/program files (x86)/microchip/xc32/v2.20/bin/bin/../../lib/gcc/pic32mx/4.8.3/../../../../pic32mx/lib/fpu64\libc.a(puts.o)
 .mdebug.abi32  0x00000000        0x0 c:/program files (x86)/microchip/xc32/v2.20/bin/bin/../../lib/gcc/pic32mx/4.8.3/../../../../pic32mx/lib/fpu64\libc.a(printf_cdnopsuxX.eo)
 .mdebug.abi32  0x00000000        0x0 c:/program files (x86)/microchip/xc32/v2.20/bin/bin/../../lib/gcc/pic32mx/4.8.3/../../../../pic32mx/lib/fpu64\libc.a(_iob.o)
 .mdebug.abi32  0x00000000        0x0 c:/program files (x86)/microchip/xc32/v2.20/bin/bin/../../lib/gcc/pic32mx/4.8.3/../../../../pic32mx/lib/fpu64\libc.a(_fputc_simple.o)
 .mdebug.abi32  0x00000000        0x0 c:/program files (x86)/microchip/xc32/v2.20/bin/bin/../../lib/gcc/pic32mx/4.8.3/../../../../pic32mx/lib/fpu64\libc.a(doprnt_cdnopsuxX.eo)
 .mdebug.abi32  0x00000000        0x0 c:/program files (x86)/microchip/xc32/v2.20/bin/bin/../../lib/gcc/pic32mx/4.8.3/../../../../pic32mx/lib/fpu64\libc.a(_flsbuf_simple.o)
 .mdebug.abi32  0x00000000        0x0 c:/program files (x86)/microchip/xc32/v2.20/bin/bin/../../lib/gcc/pic32mx/4.8.3/../../../../pic32mx/lib/fpu64\libc.a(ctype.o)
 .mdebug.abi32  0x00000000        0x0 c:/program files (x86)/microchip/xc32/v2.20/bin/bin/../../lib/gcc/pic32mx/4.8.3/../../../../pic32mx/lib/fpu64\libmfd.a(w_pow.o)
 .mdebug.abi32  0x00000000        0x0 c:/program files (x86)/microchip/xc32/v2.20/bin/bin/../../lib/gcc/pic32mx/4.8.3/../../../../pic32mx/lib/fpu64\libmfd.a(pic32_w_sqrt.o)
 .mdebug.abi32  0x00000000        0x0 c:/program files (x86)/microchip/xc32/v2.20/bin/bin/../../lib/gcc/pic32mx/4.8.3/../../../../pic32mx/lib/fpu64\libmfd.a(e_pow.o)
 .mdebug.abi32  0x00000000        0x0 c:/program files (x86)/microchip/xc32/v2.20/bin/bin/../../lib/gcc/pic32mx/4.8.3/../../../../pic32mx/lib/fpu64\libmfd.a(k_standard.o)
 .mdebug.abi32  0x00000000        0x0 c:/program files (x86)/microchip/xc32/v2.20/bin/bin/../../lib/gcc/pic32mx/4.8.3/../../../../pic32mx/lib/fpu64\libmfd.a(s_rint.o)
 .mdebug.abi32  0x00000000        0x0 c:/program files (x86)/microchip/xc32/v2.20/bin/bin/../../lib/gcc/pic32mx/4.8.3/../../../../pic32mx/lib/fpu64\libmfd.a(s_scalbn.o)
 .mdebug.abi32  0x00000000        0x0 c:/program files (x86)/microchip/xc32/v2.20/bin/bin/../../lib/gcc/pic32mx/4.8.3/fpu64\libgcc.a(_udivdi3.o)
 .mdebug.abi32  0x00000000        0x0 c:/program files (x86)/microchip/xc32/v2.20/bin/bin/../../lib/gcc/pic32mx/4.8.3/fpu64\libgcc.a(_umoddi3.o)
 .mdebug.abi32  0x00000000        0x0 c:/program files (x86)/microchip/xc32/v2.20/bin/bin/../../lib/gcc/pic32mx/4.8.3/../../../../pic32mx/lib/fpu64\libpic32.a(write.o)
 .mdebug.abi32  0x00000000        0x0 c:/program files (x86)/microchip/xc32/v2.20/bin/bin/../../lib/gcc/pic32mx/4.8.3/../../../../pic32mx/lib/fpu64\libpic32.a(errno.o)

.mdebug.abiN32
 *(.mdebug.abiN32)

.mdebug.abi64
 *(.mdebug.abi64)

.mdebug.abiO64
 *(.mdebug.abiO64)

.mdebug.eabi32
 *(.mdebug.eabi32)

.mdebug.eabi64
 *(.mdebug.eabi64)

.gcc_compiled_long32
 *(.gcc_compiled_long32)

.gcc_compiled_long64
 *(.gcc_compiled_long64)

.stab
 *(.stab)

.stabstr
 *(.stabstr)

.stab.excl
 *(.stab.excl)

.stab.exclstr
 *(.stab.exclstr)

.stab.index
 *(.stab.index)

.stab.indexstr
 *(.stab.indexstr)

.comment        0x00000000       0x8a
 *(.comment)
 .comment       0x00000000       0x3c build/FFT/production/_ext/1360937237/neopixel.o
                                 0x3d (size before relaxing)
 .comment       0x00000000       0x3d build/FFT/production/_ext/1360937237/FFT.o
 .comment       0x00000000       0x3d build/FFT/production/_ext/1360937237/ADCGather.o
 .comment       0x00000000       0x3d build/FFT/production/_ext/1360937237/UART.o
 .comment       0x00000000       0x3d build/FFT/production/_ext/2109630876/plib_ocmp6.o
 .comment       0x00000000       0x3d build/FFT/production/_ext/1360937237/main.o
 .comment       0x00000000       0x3d build/FFT/production/_ext/1272119167/initialization.o
 .comment       0x00000000       0x3d build/FFT/production/_ext/1272119167/interrupts.o
 .comment       0x00000000       0x3d build/FFT/production/_ext/1272119167/exceptions.o
 .comment       0x00000000       0x3d build/FFT/production/_ext/489647995/xc32_monitor.o
 .comment       0x00000000       0x3d build/FFT/production/_ext/1317431971/plib_clk.o
 .comment       0x00000000       0x3d build/FFT/production/_ext/2109404916/plib_gpio.o
 .comment       0x00000000       0x3d build/FFT/production/_ext/2109351088/plib_evic.o
 .comment       0x00000000       0x3d build/FFT/production/_ext/2109630876/plib_ocmp4.o
 .comment       0x00000000       0x3d build/FFT/production/_ext/2109630876/plib_ocmp2.o
 .comment       0x00000000       0x3d build/FFT/production/_ext/2109630876/plib_ocmp3.o
 .comment       0x00000000       0x3d build/FFT/production/_ext/961138470/plib_adchs.o
 .comment       0x00000000       0x3d build/FFT/production/_ext/2109807859/plib_uart1.o
 .comment       0x00000000       0x3d build/FFT/production/_ext/1891070335/drv_usart.o
 .comment       0x00000000       0x3d build/FFT/production/_ext/1317415596/plib_tmr2.o
 .comment       0x00000000       0x3d build/FFT/production/_ext/1317415596/plib_tmr3.o
 .comment       0x00000000       0x3d build/FFT/production/_ext/504070962/sys_int.o
 .comment       0x00000000       0x3d build/FFT/production/_ext/980732774/sys_dma.o
 .comment       0x00000000       0x3d build/FFT/production/_ext/1360937237/app.o
 .comment       0x00000000       0x3d build/FFT/production/_ext/1272119167/tasks.o
 .comment       0x00000000       0x3d c:/program files (x86)/microchip/xc32/v2.20/bin/bin/../../lib/gcc/pic32mx/4.8.3/../../../../pic32mx/lib/fpu64\libpic32.a(default-bootstrap-exception-handler.o)
 .comment       0x00000000       0x3d c:/program files (x86)/microchip/xc32/v2.20/bin/bin/../../lib/gcc/pic32mx/4.8.3/../../../../pic32mx/lib/fpu64\libpic32.a(default-on-reset.o)
 .comment       0x00000000       0x3d c:/program files (x86)/microchip/xc32/v2.20/bin/bin/../../lib/gcc/pic32mx/4.8.3/../../../../pic32mx/lib/fpu64\libpic32.a(default-on-bootstrap.o)
 .comment       0x00000000       0x3d c:/program files (x86)/microchip/xc32/v2.20/bin/bin/../../lib/gcc/pic32mx/4.8.3/../../../../pic32mx/lib/fpu64\libpic32.a(defaultinterrupt.o)
 .comment       0x00000000       0x3d c:/program files (x86)/microchip/xc32/v2.20/bin/bin/../../lib/gcc/pic32mx/4.8.3/../../../../pic32mx/lib/fpu64\libpic32.a(default-cache-err-exception-handler.o)
 .comment       0x00000000       0x3d c:/program files (x86)/microchip/xc32/v2.20/bin/bin/../../lib/gcc/pic32mx/4.8.3/../../../../pic32mx/lib/fpu64\libpic32.a(default-simple-tlb-refill-exception-handler.o)
 .comment       0x00000000       0x3d c:/program files (x86)/microchip/xc32/v2.20/bin/bin/../../lib/gcc/pic32mx/4.8.3/../../../../pic32mx/lib/fpu64\libc.a(puts.o)
 .comment       0x00000000       0x3d c:/program files (x86)/microchip/xc32/v2.20/bin/bin/../../lib/gcc/pic32mx/4.8.3/../../../../pic32mx/lib/fpu64\libc.a(printf_cdnopsuxX.eo)
 .comment       0x00000000       0x3d c:/program files (x86)/microchip/xc32/v2.20/bin/bin/../../lib/gcc/pic32mx/4.8.3/../../../../pic32mx/lib/fpu64\libc.a(_iob.o)
 .comment       0x00000000       0x3d c:/program files (x86)/microchip/xc32/v2.20/bin/bin/../../lib/gcc/pic32mx/4.8.3/../../../../pic32mx/lib/fpu64\libc.a(_fputc_simple.o)
 .comment       0x00000000       0x3d c:/program files (x86)/microchip/xc32/v2.20/bin/bin/../../lib/gcc/pic32mx/4.8.3/../../../../pic32mx/lib/fpu64\libc.a(doprnt_cdnopsuxX.eo)
 .comment       0x00000000       0x3d c:/program files (x86)/microchip/xc32/v2.20/bin/bin/../../lib/gcc/pic32mx/4.8.3/../../../../pic32mx/lib/fpu64\libc.a(_flsbuf_simple.o)
 .comment       0x0000003c       0x4e c:/program files (x86)/microchip/xc32/v2.20/bin/bin/../../lib/gcc/pic32mx/4.8.3/../../../../pic32mx/lib/fpu64\libc.a(ctype.o)
                                 0x8b (size before relaxing)
 .comment       0x00000000       0x3d c:/program files (x86)/microchip/xc32/v2.20/bin/bin/../../lib/gcc/pic32mx/4.8.3/../../../../pic32mx/lib/fpu64\libmfd.a(w_pow.o)
 .comment       0x00000000       0x3d c:/program files (x86)/microchip/xc32/v2.20/bin/bin/../../lib/gcc/pic32mx/4.8.3/../../../../pic32mx/lib/fpu64\libmfd.a(pic32_w_sqrt.o)
 .comment       0x00000000       0x3d c:/program files (x86)/microchip/xc32/v2.20/bin/bin/../../lib/gcc/pic32mx/4.8.3/../../../../pic32mx/lib/fpu64\libmfd.a(e_pow.o)
 .comment       0x00000000       0x3d c:/program files (x86)/microchip/xc32/v2.20/bin/bin/../../lib/gcc/pic32mx/4.8.3/../../../../pic32mx/lib/fpu64\libmfd.a(k_standard.o)
 .comment       0x00000000       0x3d c:/program files (x86)/microchip/xc32/v2.20/bin/bin/../../lib/gcc/pic32mx/4.8.3/../../../../pic32mx/lib/fpu64\libmfd.a(s_rint.o)
 .comment       0x00000000       0x3d c:/program files (x86)/microchip/xc32/v2.20/bin/bin/../../lib/gcc/pic32mx/4.8.3/../../../../pic32mx/lib/fpu64\libmfd.a(s_scalbn.o)
 .comment       0x00000000       0x3d c:/program files (x86)/microchip/xc32/v2.20/bin/bin/../../lib/gcc/pic32mx/4.8.3/fpu64\libgcc.a(_udivdi3.o)
 .comment       0x00000000       0x3d c:/program files (x86)/microchip/xc32/v2.20/bin/bin/../../lib/gcc/pic32mx/4.8.3/fpu64\libgcc.a(_umoddi3.o)
 .comment       0x00000000       0x3d c:/program files (x86)/microchip/xc32/v2.20/bin/bin/../../lib/gcc/pic32mx/4.8.3/../../../../pic32mx/lib/fpu64\libpic32.a(write.o)
 .comment       0x00000000       0x3d c:/program files (x86)/microchip/xc32/v2.20/bin/bin/../../lib/gcc/pic32mx/4.8.3/../../../../pic32mx/lib/fpu64\libpic32.a(errno.o)

.debug
 *.elf(.debug)
 *(.debug)

.line
 *.elf(.line)
 *(.line)

.debug_srcinfo
 *.elf(.debug_srcinfo)
 *(.debug_srcinfo)

.debug_sfnames
 *.elf(.debug_sfnames)
 *(.debug_sfnames)

.debug_aranges  0x00000000      0x9f0
 *.elf(.debug_aranges)
 *(.debug_aranges)
 .debug_aranges
                0x00000000       0x48 build/FFT/production/_ext/1360937237/neopixel.o
 .debug_aranges
                0x00000048       0x78 build/FFT/production/_ext/1360937237/FFT.o
 .debug_aranges
                0x000000c0       0x40 build/FFT/production/_ext/1360937237/ADCGather.o
 .debug_aranges
                0x00000100       0x30 build/FFT/production/_ext/1360937237/UART.o
 .debug_aranges
                0x00000130       0x48 build/FFT/production/_ext/2109630876/plib_ocmp6.o
 .debug_aranges
                0x00000178       0x20 build/FFT/production/_ext/1360937237/main.o
 .debug_aranges
                0x00000198       0x20 build/FFT/production/_ext/1272119167/initialization.o
 .debug_aranges
                0x000001b8       0x40 build/FFT/production/_ext/1272119167/interrupts.o
 .debug_aranges
                0x000001f8       0x20 build/FFT/production/_ext/1272119167/exceptions.o
 .debug_aranges
                0x00000218       0x28 build/FFT/production/_ext/489647995/xc32_monitor.o
 .debug_aranges
                0x00000240       0x20 build/FFT/production/_ext/1317431971/plib_clk.o
 .debug_aranges
                0x00000260       0x60 build/FFT/production/_ext/2109404916/plib_gpio.o
 .debug_aranges
                0x000002c0       0x50 build/FFT/production/_ext/2109351088/plib_evic.o
 .debug_aranges
                0x00000310       0x48 build/FFT/production/_ext/2109630876/plib_ocmp4.o
 .debug_aranges
                0x00000358       0x48 build/FFT/production/_ext/2109630876/plib_ocmp2.o
 .debug_aranges
                0x000003a0       0x48 build/FFT/production/_ext/2109630876/plib_ocmp3.o
 .debug_aranges
                0x000003e8       0x78 build/FFT/production/_ext/961138470/plib_adchs.o
 .debug_aranges
                0x00000460       0x88 build/FFT/production/_ext/2109807859/plib_uart1.o
 .debug_aranges
                0x000004e8       0xe0 build/FFT/production/_ext/1891070335/drv_usart.o
 .debug_aranges
                0x000005c8       0x70 build/FFT/production/_ext/1317415596/plib_tmr2.o
 .debug_aranges
                0x00000638       0x70 build/FFT/production/_ext/1317415596/plib_tmr3.o
 .debug_aranges
                0x000006a8       0x40 build/FFT/production/_ext/504070962/sys_int.o
 .debug_aranges
                0x000006e8       0x30 build/FFT/production/_ext/980732774/sys_dma.o
 .debug_aranges
                0x00000718       0x28 build/FFT/production/_ext/1360937237/app.o
 .debug_aranges
                0x00000740       0x20 build/FFT/production/_ext/1272119167/tasks.o
 .debug_aranges
                0x00000760       0x20 c:/program files (x86)/microchip/xc32/v2.20/bin/bin/../../lib/gcc/pic32mx/4.8.3/../../../../pic32mx/lib/fpu64\libpic32.a(default-bootstrap-exception-handler.o)
 .debug_aranges
                0x00000780       0x20 c:/program files (x86)/microchip/xc32/v2.20/bin/bin/../../lib/gcc/pic32mx/4.8.3/../../../../pic32mx/lib/fpu64\libpic32.a(default-on-reset.o)
 .debug_aranges
                0x000007a0       0x20 c:/program files (x86)/microchip/xc32/v2.20/bin/bin/../../lib/gcc/pic32mx/4.8.3/../../../../pic32mx/lib/fpu64\libpic32.a(default-on-bootstrap.o)
 .debug_aranges
                0x000007c0       0x20 c:/program files (x86)/microchip/xc32/v2.20/bin/bin/../../lib/gcc/pic32mx/4.8.3/../../../../pic32mx/lib/fpu64\libpic32.a(defaultinterrupt.o)
 .debug_aranges
                0x000007e0       0x20 c:/program files (x86)/microchip/xc32/v2.20/bin/bin/../../lib/gcc/pic32mx/4.8.3/../../../../pic32mx/lib/fpu64\libpic32.a(default-cache-err-exception-handler.o)
 .debug_aranges
                0x00000800       0x20 c:/program files (x86)/microchip/xc32/v2.20/bin/bin/../../lib/gcc/pic32mx/4.8.3/../../../../pic32mx/lib/fpu64\libpic32.a(default-simple-tlb-refill-exception-handler.o)
 .debug_aranges
                0x00000820       0x28 c:/program files (x86)/microchip/xc32/v2.20/bin/bin/../../lib/gcc/pic32mx/4.8.3/../../../../pic32mx/lib/fpu64\libc.a(puts.o)
 .debug_aranges
                0x00000848       0x20 c:/program files (x86)/microchip/xc32/v2.20/bin/bin/../../lib/gcc/pic32mx/4.8.3/../../../../pic32mx/lib/fpu64\libc.a(printf_cdnopsuxX.eo)
 .debug_aranges
                0x00000868       0x20 c:/program files (x86)/microchip/xc32/v2.20/bin/bin/../../lib/gcc/pic32mx/4.8.3/../../../../pic32mx/lib/fpu64\libc.a(_fputc_simple.o)
 .debug_aranges
                0x00000888       0x20 c:/program files (x86)/microchip/xc32/v2.20/bin/bin/../../lib/gcc/pic32mx/4.8.3/../../../../pic32mx/lib/fpu64\libc.a(doprnt_cdnopsuxX.eo)
 .debug_aranges
                0x000008a8       0x20 c:/program files (x86)/microchip/xc32/v2.20/bin/bin/../../lib/gcc/pic32mx/4.8.3/../../../../pic32mx/lib/fpu64\libc.a(_flsbuf_simple.o)
 .debug_aranges
                0x000008c8       0x20 c:/program files (x86)/microchip/xc32/v2.20/bin/bin/../../lib/gcc/pic32mx/4.8.3/../../../../pic32mx/lib/fpu64\libmfd.a(w_pow.o)
 .debug_aranges
                0x000008e8       0x20 c:/program files (x86)/microchip/xc32/v2.20/bin/bin/../../lib/gcc/pic32mx/4.8.3/../../../../pic32mx/lib/fpu64\libmfd.a(pic32_w_sqrt.o)
 .debug_aranges
                0x00000908       0x20 c:/program files (x86)/microchip/xc32/v2.20/bin/bin/../../lib/gcc/pic32mx/4.8.3/../../../../pic32mx/lib/fpu64\libmfd.a(e_pow.o)
 .debug_aranges
                0x00000928       0x20 c:/program files (x86)/microchip/xc32/v2.20/bin/bin/../../lib/gcc/pic32mx/4.8.3/../../../../pic32mx/lib/fpu64\libmfd.a(k_standard.o)
 .debug_aranges
                0x00000948       0x20 c:/program files (x86)/microchip/xc32/v2.20/bin/bin/../../lib/gcc/pic32mx/4.8.3/../../../../pic32mx/lib/fpu64\libmfd.a(s_rint.o)
 .debug_aranges
                0x00000968       0x28 c:/program files (x86)/microchip/xc32/v2.20/bin/bin/../../lib/gcc/pic32mx/4.8.3/../../../../pic32mx/lib/fpu64\libmfd.a(s_scalbn.o)
 .debug_aranges
                0x00000990       0x20 c:/program files (x86)/microchip/xc32/v2.20/bin/bin/../../lib/gcc/pic32mx/4.8.3/fpu64\libgcc.a(_udivdi3.o)
 .debug_aranges
                0x000009b0       0x20 c:/program files (x86)/microchip/xc32/v2.20/bin/bin/../../lib/gcc/pic32mx/4.8.3/fpu64\libgcc.a(_umoddi3.o)
 .debug_aranges
                0x000009d0       0x20 c:/program files (x86)/microchip/xc32/v2.20/bin/bin/../../lib/gcc/pic32mx/4.8.3/../../../../pic32mx/lib/fpu64\libpic32.a(write.o)

.debug_pubnames
 *.elf(.debug_pubnames)
 *(.debug_pubnames)

.debug_info     0x00000000    0x11678
 *.elf(.debug_info .gnu.linkonce.wi.*)
 *(.debug_info .gnu.linkonce.wi.*)
 .debug_info    0x00000000      0x608 build/FFT/production/_ext/1360937237/neopixel.o
 .debug_info    0x00000608      0xca2 build/FFT/production/_ext/1360937237/FFT.o
 .debug_info    0x000012aa      0x653 build/FFT/production/_ext/1360937237/ADCGather.o
 .debug_info    0x000018fd      0x8f1 build/FFT/production/_ext/1360937237/UART.o
 .debug_info    0x000021ee      0x2e6 build/FFT/production/_ext/2109630876/plib_ocmp6.o
 .debug_info    0x000024d4      0x1bc build/FFT/production/_ext/1360937237/main.o
 .debug_info    0x00002690     0x16a6 build/FFT/production/_ext/1272119167/initialization.o
 .debug_info    0x00003d36      0x2ef build/FFT/production/_ext/1272119167/interrupts.o
 .debug_info    0x00004025      0x245 build/FFT/production/_ext/1272119167/exceptions.o
 .debug_info    0x0000426a      0x283 build/FFT/production/_ext/489647995/xc32_monitor.o
 .debug_info    0x000044ed      0x230 build/FFT/production/_ext/1317431971/plib_clk.o
 .debug_info    0x0000471d      0x720 build/FFT/production/_ext/2109404916/plib_gpio.o
 .debug_info    0x00004e3d     0x16fa build/FFT/production/_ext/2109351088/plib_evic.o
 .debug_info    0x00006537      0x2e6 build/FFT/production/_ext/2109630876/plib_ocmp4.o
 .debug_info    0x0000681d      0x2e6 build/FFT/production/_ext/2109630876/plib_ocmp2.o
 .debug_info    0x00006b03      0x2e6 build/FFT/production/_ext/2109630876/plib_ocmp3.o
 .debug_info    0x00006de9      0xf06 build/FFT/production/_ext/961138470/plib_adchs.o
 .debug_info    0x00007cef      0xa1f build/FFT/production/_ext/2109807859/plib_uart1.o
 .debug_info    0x0000870e     0x42f6 build/FFT/production/_ext/1891070335/drv_usart.o
 .debug_info    0x0000ca04      0x755 build/FFT/production/_ext/1317415596/plib_tmr2.o
 .debug_info    0x0000d159      0x755 build/FFT/production/_ext/1317415596/plib_tmr3.o
 .debug_info    0x0000d8ae     0x167a build/FFT/production/_ext/504070962/sys_int.o
 .debug_info    0x0000ef28      0x54b build/FFT/production/_ext/980732774/sys_dma.o
 .debug_info    0x0000f473      0x2b4 build/FFT/production/_ext/1360937237/app.o
 .debug_info    0x0000f727      0x195 build/FFT/production/_ext/1272119167/tasks.o
 .debug_info    0x0000f8bc       0xf4 c:/program files (x86)/microchip/xc32/v2.20/bin/bin/../../lib/gcc/pic32mx/4.8.3/../../../../pic32mx/lib/fpu64\libpic32.a(default-bootstrap-exception-handler.o)
 .debug_info    0x0000f9b0       0xcd c:/program files (x86)/microchip/xc32/v2.20/bin/bin/../../lib/gcc/pic32mx/4.8.3/../../../../pic32mx/lib/fpu64\libpic32.a(default-on-reset.o)
 .debug_info    0x0000fa7d       0xd5 c:/program files (x86)/microchip/xc32/v2.20/bin/bin/../../lib/gcc/pic32mx/4.8.3/../../../../pic32mx/lib/fpu64\libpic32.a(default-on-bootstrap.o)
 .debug_info    0x0000fb52       0xe7 c:/program files (x86)/microchip/xc32/v2.20/bin/bin/../../lib/gcc/pic32mx/4.8.3/../../../../pic32mx/lib/fpu64\libpic32.a(defaultinterrupt.o)
 .debug_info    0x0000fc39       0xf4 c:/program files (x86)/microchip/xc32/v2.20/bin/bin/../../lib/gcc/pic32mx/4.8.3/../../../../pic32mx/lib/fpu64\libpic32.a(default-cache-err-exception-handler.o)
 .debug_info    0x0000fd2d      0x104 c:/program files (x86)/microchip/xc32/v2.20/bin/bin/../../lib/gcc/pic32mx/4.8.3/../../../../pic32mx/lib/fpu64\libpic32.a(default-simple-tlb-refill-exception-handler.o)
 .debug_info    0x0000fe31       0xd5 c:/program files (x86)/microchip/xc32/v2.20/bin/bin/../../lib/gcc/pic32mx/4.8.3/../../../../pic32mx/lib/fpu64\libc.a(puts.o)
 .debug_info    0x0000ff06       0xcf c:/program files (x86)/microchip/xc32/v2.20/bin/bin/../../lib/gcc/pic32mx/4.8.3/../../../../pic32mx/lib/fpu64\libc.a(printf_cdnopsuxX.eo)
 .debug_info    0x0000ffd5       0xc2 c:/program files (x86)/microchip/xc32/v2.20/bin/bin/../../lib/gcc/pic32mx/4.8.3/../../../../pic32mx/lib/fpu64\libc.a(_fputc_simple.o)
 .debug_info    0x00010097       0xd2 c:/program files (x86)/microchip/xc32/v2.20/bin/bin/../../lib/gcc/pic32mx/4.8.3/../../../../pic32mx/lib/fpu64\libc.a(doprnt_cdnopsuxX.eo)
 .debug_info    0x00010169       0xc5 c:/program files (x86)/microchip/xc32/v2.20/bin/bin/../../lib/gcc/pic32mx/4.8.3/../../../../pic32mx/lib/fpu64\libc.a(_flsbuf_simple.o)
 .debug_info    0x0001022e       0xbc c:/program files (x86)/microchip/xc32/v2.20/bin/bin/../../lib/gcc/pic32mx/4.8.3/../../../../pic32mx/lib/fpu64\libmfd.a(w_pow.o)
 .debug_info    0x000102ea       0xca c:/program files (x86)/microchip/xc32/v2.20/bin/bin/../../lib/gcc/pic32mx/4.8.3/../../../../pic32mx/lib/fpu64\libmfd.a(pic32_w_sqrt.o)
 .debug_info    0x000103b4       0xc4 c:/program files (x86)/microchip/xc32/v2.20/bin/bin/../../lib/gcc/pic32mx/4.8.3/../../../../pic32mx/lib/fpu64\libmfd.a(e_pow.o)
 .debug_info    0x00010478       0xcd c:/program files (x86)/microchip/xc32/v2.20/bin/bin/../../lib/gcc/pic32mx/4.8.3/../../../../pic32mx/lib/fpu64\libmfd.a(k_standard.o)
 .debug_info    0x00010545       0xbc c:/program files (x86)/microchip/xc32/v2.20/bin/bin/../../lib/gcc/pic32mx/4.8.3/../../../../pic32mx/lib/fpu64\libmfd.a(s_rint.o)
 .debug_info    0x00010601       0xd9 c:/program files (x86)/microchip/xc32/v2.20/bin/bin/../../lib/gcc/pic32mx/4.8.3/../../../../pic32mx/lib/fpu64\libmfd.a(s_scalbn.o)
 .debug_info    0x000106da      0x751 c:/program files (x86)/microchip/xc32/v2.20/bin/bin/../../lib/gcc/pic32mx/4.8.3/fpu64\libgcc.a(_udivdi3.o)
 .debug_info    0x00010e2b      0x78e c:/program files (x86)/microchip/xc32/v2.20/bin/bin/../../lib/gcc/pic32mx/4.8.3/fpu64\libgcc.a(_umoddi3.o)
 .debug_info    0x000115b9       0xbf c:/program files (x86)/microchip/xc32/v2.20/bin/bin/../../lib/gcc/pic32mx/4.8.3/../../../../pic32mx/lib/fpu64\libpic32.a(write.o)

.debug_abbrev   0x00000000     0x23f9
 *.elf(.debug_abbrev)
 *(.debug_abbrev)
 .debug_abbrev  0x00000000      0x192 build/FFT/production/_ext/1360937237/neopixel.o
 .debug_abbrev  0x00000192      0x280 build/FFT/production/_ext/1360937237/FFT.o
 .debug_abbrev  0x00000412      0x14e build/FFT/production/_ext/1360937237/ADCGather.o
 .debug_abbrev  0x00000560      0x155 build/FFT/production/_ext/1360937237/UART.o
 .debug_abbrev  0x000006b5       0xa1 build/FFT/production/_ext/2109630876/plib_ocmp6.o
 .debug_abbrev  0x00000756       0x93 build/FFT/production/_ext/1360937237/main.o
 .debug_abbrev  0x000007e9      0x25b build/FFT/production/_ext/1272119167/initialization.o
 .debug_abbrev  0x00000a44       0x57 build/FFT/production/_ext/1272119167/interrupts.o
 .debug_abbrev  0x00000a9b       0xa4 build/FFT/production/_ext/1272119167/exceptions.o
 .debug_abbrev  0x00000b3f       0xec build/FFT/production/_ext/489647995/xc32_monitor.o
 .debug_abbrev  0x00000c2b       0x6f build/FFT/production/_ext/1317431971/plib_clk.o
 .debug_abbrev  0x00000c9a      0x132 build/FFT/production/_ext/2109404916/plib_gpio.o
 .debug_abbrev  0x00000dcc       0xed build/FFT/production/_ext/2109351088/plib_evic.o
 .debug_abbrev  0x00000eb9       0xa1 build/FFT/production/_ext/2109630876/plib_ocmp4.o
 .debug_abbrev  0x00000f5a       0xa1 build/FFT/production/_ext/2109630876/plib_ocmp2.o
 .debug_abbrev  0x00000ffb       0xa1 build/FFT/production/_ext/2109630876/plib_ocmp3.o
 .debug_abbrev  0x0000109c      0x10b build/FFT/production/_ext/961138470/plib_adchs.o
 .debug_abbrev  0x000011a7      0x21b build/FFT/production/_ext/2109807859/plib_uart1.o
 .debug_abbrev  0x000013c2      0x4c0 build/FFT/production/_ext/1891070335/drv_usart.o
 .debug_abbrev  0x00001882      0x183 build/FFT/production/_ext/1317415596/plib_tmr2.o
 .debug_abbrev  0x00001a05      0x183 build/FFT/production/_ext/1317415596/plib_tmr3.o
 .debug_abbrev  0x00001b88      0x130 build/FFT/production/_ext/504070962/sys_int.o
 .debug_abbrev  0x00001cb8       0xa6 build/FFT/production/_ext/980732774/sys_dma.o
 .debug_abbrev  0x00001d5e       0xe2 build/FFT/production/_ext/1360937237/app.o
 .debug_abbrev  0x00001e40       0x57 build/FFT/production/_ext/1272119167/tasks.o
 .debug_abbrev  0x00001e97       0x28 c:/program files (x86)/microchip/xc32/v2.20/bin/bin/../../lib/gcc/pic32mx/4.8.3/../../../../pic32mx/lib/fpu64\libpic32.a(default-bootstrap-exception-handler.o)
 .debug_abbrev  0x00001ebf       0x28 c:/program files (x86)/microchip/xc32/v2.20/bin/bin/../../lib/gcc/pic32mx/4.8.3/../../../../pic32mx/lib/fpu64\libpic32.a(default-on-reset.o)
 .debug_abbrev  0x00001ee7       0x28 c:/program files (x86)/microchip/xc32/v2.20/bin/bin/../../lib/gcc/pic32mx/4.8.3/../../../../pic32mx/lib/fpu64\libpic32.a(default-on-bootstrap.o)
 .debug_abbrev  0x00001f0f       0x28 c:/program files (x86)/microchip/xc32/v2.20/bin/bin/../../lib/gcc/pic32mx/4.8.3/../../../../pic32mx/lib/fpu64\libpic32.a(defaultinterrupt.o)
 .debug_abbrev  0x00001f37       0x28 c:/program files (x86)/microchip/xc32/v2.20/bin/bin/../../lib/gcc/pic32mx/4.8.3/../../../../pic32mx/lib/fpu64\libpic32.a(default-cache-err-exception-handler.o)
 .debug_abbrev  0x00001f5f       0x28 c:/program files (x86)/microchip/xc32/v2.20/bin/bin/../../lib/gcc/pic32mx/4.8.3/../../../../pic32mx/lib/fpu64\libpic32.a(default-simple-tlb-refill-exception-handler.o)
 .debug_abbrev  0x00001f87       0x28 c:/program files (x86)/microchip/xc32/v2.20/bin/bin/../../lib/gcc/pic32mx/4.8.3/../../../../pic32mx/lib/fpu64\libc.a(puts.o)
 .debug_abbrev  0x00001faf       0x28 c:/program files (x86)/microchip/xc32/v2.20/bin/bin/../../lib/gcc/pic32mx/4.8.3/../../../../pic32mx/lib/fpu64\libc.a(printf_cdnopsuxX.eo)
 .debug_abbrev  0x00001fd7       0x28 c:/program files (x86)/microchip/xc32/v2.20/bin/bin/../../lib/gcc/pic32mx/4.8.3/../../../../pic32mx/lib/fpu64\libc.a(_fputc_simple.o)
 .debug_abbrev  0x00001fff       0x28 c:/program files (x86)/microchip/xc32/v2.20/bin/bin/../../lib/gcc/pic32mx/4.8.3/../../../../pic32mx/lib/fpu64\libc.a(doprnt_cdnopsuxX.eo)
 .debug_abbrev  0x00002027       0x28 c:/program files (x86)/microchip/xc32/v2.20/bin/bin/../../lib/gcc/pic32mx/4.8.3/../../../../pic32mx/lib/fpu64\libc.a(_flsbuf_simple.o)
 .debug_abbrev  0x0000204f       0x28 c:/program files (x86)/microchip/xc32/v2.20/bin/bin/../../lib/gcc/pic32mx/4.8.3/../../../../pic32mx/lib/fpu64\libmfd.a(w_pow.o)
 .debug_abbrev  0x00002077       0x28 c:/program files (x86)/microchip/xc32/v2.20/bin/bin/../../lib/gcc/pic32mx/4.8.3/../../../../pic32mx/lib/fpu64\libmfd.a(pic32_w_sqrt.o)
 .debug_abbrev  0x0000209f       0x28 c:/program files (x86)/microchip/xc32/v2.20/bin/bin/../../lib/gcc/pic32mx/4.8.3/../../../../pic32mx/lib/fpu64\libmfd.a(e_pow.o)
 .debug_abbrev  0x000020c7       0x28 c:/program files (x86)/microchip/xc32/v2.20/bin/bin/../../lib/gcc/pic32mx/4.8.3/../../../../pic32mx/lib/fpu64\libmfd.a(k_standard.o)
 .debug_abbrev  0x000020ef       0x28 c:/program files (x86)/microchip/xc32/v2.20/bin/bin/../../lib/gcc/pic32mx/4.8.3/../../../../pic32mx/lib/fpu64\libmfd.a(s_rint.o)
 .debug_abbrev  0x00002117       0x3b c:/program files (x86)/microchip/xc32/v2.20/bin/bin/../../lib/gcc/pic32mx/4.8.3/../../../../pic32mx/lib/fpu64\libmfd.a(s_scalbn.o)
 .debug_abbrev  0x00002152      0x138 c:/program files (x86)/microchip/xc32/v2.20/bin/bin/../../lib/gcc/pic32mx/4.8.3/fpu64\libgcc.a(_udivdi3.o)
 .debug_abbrev  0x0000228a      0x147 c:/program files (x86)/microchip/xc32/v2.20/bin/bin/../../lib/gcc/pic32mx/4.8.3/fpu64\libgcc.a(_umoddi3.o)
 .debug_abbrev  0x000023d1       0x28 c:/program files (x86)/microchip/xc32/v2.20/bin/bin/../../lib/gcc/pic32mx/4.8.3/../../../../pic32mx/lib/fpu64\libpic32.a(write.o)

.debug_line     0x00000000     0x430e
 *.elf(.debug_line)
 *(.debug_line)
 .debug_line    0x00000000      0x2cf build/FFT/production/_ext/1360937237/neopixel.o
 .debug_line    0x000002cf      0x3aa build/FFT/production/_ext/1360937237/FFT.o
 .debug_line    0x00000679      0x215 build/FFT/production/_ext/1360937237/ADCGather.o
 .debug_line    0x0000088e      0x272 build/FFT/production/_ext/1360937237/UART.o
 .debug_line    0x00000b00      0x194 build/FFT/production/_ext/2109630876/plib_ocmp6.o
 .debug_line    0x00000c94       0xc8 build/FFT/production/_ext/1360937237/main.o
 .debug_line    0x00000d5c      0x6dd build/FFT/production/_ext/1272119167/initialization.o
 .debug_line    0x00001439       0xef build/FFT/production/_ext/1272119167/interrupts.o
 .debug_line    0x00001528       0xce build/FFT/production/_ext/1272119167/exceptions.o
 .debug_line    0x000015f6      0x1ab build/FFT/production/_ext/489647995/xc32_monitor.o
 .debug_line    0x000017a1      0x14a build/FFT/production/_ext/1317431971/plib_clk.o
 .debug_line    0x000018eb      0x1e8 build/FFT/production/_ext/2109404916/plib_gpio.o
 .debug_line    0x00001ad3      0x1c0 build/FFT/production/_ext/2109351088/plib_evic.o
 .debug_line    0x00001c93      0x194 build/FFT/production/_ext/2109630876/plib_ocmp4.o
 .debug_line    0x00001e27      0x194 build/FFT/production/_ext/2109630876/plib_ocmp2.o
 .debug_line    0x00001fbb      0x194 build/FFT/production/_ext/2109630876/plib_ocmp3.o
 .debug_line    0x0000214f      0x239 build/FFT/production/_ext/961138470/plib_adchs.o
 .debug_line    0x00002388      0x327 build/FFT/production/_ext/2109807859/plib_uart1.o
 .debug_line    0x000026af      0x802 build/FFT/production/_ext/1891070335/drv_usart.o
 .debug_line    0x00002eb1      0x203 build/FFT/production/_ext/1317415596/plib_tmr2.o
 .debug_line    0x000030b4      0x203 build/FFT/production/_ext/1317415596/plib_tmr3.o
 .debug_line    0x000032b7      0x195 build/FFT/production/_ext/504070962/sys_int.o
 .debug_line    0x0000344c      0x100 build/FFT/production/_ext/980732774/sys_dma.o
 .debug_line    0x0000354c      0x154 build/FFT/production/_ext/1360937237/app.o
 .debug_line    0x000036a0       0xc4 build/FFT/production/_ext/1272119167/tasks.o
 .debug_line    0x00003764       0xa6 c:/program files (x86)/microchip/xc32/v2.20/bin/bin/../../lib/gcc/pic32mx/4.8.3/../../../../pic32mx/lib/fpu64\libpic32.a(default-bootstrap-exception-handler.o)
 .debug_line    0x0000380a       0x93 c:/program files (x86)/microchip/xc32/v2.20/bin/bin/../../lib/gcc/pic32mx/4.8.3/../../../../pic32mx/lib/fpu64\libpic32.a(default-on-reset.o)
 .debug_line    0x0000389d       0x97 c:/program files (x86)/microchip/xc32/v2.20/bin/bin/../../lib/gcc/pic32mx/4.8.3/../../../../pic32mx/lib/fpu64\libpic32.a(default-on-bootstrap.o)
 .debug_line    0x00003934       0xa5 c:/program files (x86)/microchip/xc32/v2.20/bin/bin/../../lib/gcc/pic32mx/4.8.3/../../../../pic32mx/lib/fpu64\libpic32.a(defaultinterrupt.o)
 .debug_line    0x000039d9       0xa6 c:/program files (x86)/microchip/xc32/v2.20/bin/bin/../../lib/gcc/pic32mx/4.8.3/../../../../pic32mx/lib/fpu64\libpic32.a(default-cache-err-exception-handler.o)
 .debug_line    0x00003a7f       0xae c:/program files (x86)/microchip/xc32/v2.20/bin/bin/../../lib/gcc/pic32mx/4.8.3/../../../../pic32mx/lib/fpu64\libpic32.a(default-simple-tlb-refill-exception-handler.o)
 .debug_line    0x00003b2d       0x7c c:/program files (x86)/microchip/xc32/v2.20/bin/bin/../../lib/gcc/pic32mx/4.8.3/../../../../pic32mx/lib/fpu64\libc.a(puts.o)
 .debug_line    0x00003ba9       0x7e c:/program files (x86)/microchip/xc32/v2.20/bin/bin/../../lib/gcc/pic32mx/4.8.3/../../../../pic32mx/lib/fpu64\libc.a(printf_cdnopsuxX.eo)
 .debug_line    0x00003c27        0x0 c:/program files (x86)/microchip/xc32/v2.20/bin/bin/../../lib/gcc/pic32mx/4.8.3/../../../../pic32mx/lib/fpu64\libc.a(_iob.o)
 .debug_line    0x00003c27       0x7d c:/program files (x86)/microchip/xc32/v2.20/bin/bin/../../lib/gcc/pic32mx/4.8.3/../../../../pic32mx/lib/fpu64\libc.a(_fputc_simple.o)
 .debug_line    0x00003ca4       0x7e c:/program files (x86)/microchip/xc32/v2.20/bin/bin/../../lib/gcc/pic32mx/4.8.3/../../../../pic32mx/lib/fpu64\libc.a(doprnt_cdnopsuxX.eo)
 .debug_line    0x00003d22       0x7e c:/program files (x86)/microchip/xc32/v2.20/bin/bin/../../lib/gcc/pic32mx/4.8.3/../../../../pic32mx/lib/fpu64\libc.a(_flsbuf_simple.o)
 .debug_line    0x00003da0        0x0 c:/program files (x86)/microchip/xc32/v2.20/bin/bin/../../lib/gcc/pic32mx/4.8.3/../../../../pic32mx/lib/fpu64\libc.a(ctype.o)
 .debug_line    0x00003da0       0x78 c:/program files (x86)/microchip/xc32/v2.20/bin/bin/../../lib/gcc/pic32mx/4.8.3/../../../../pic32mx/lib/fpu64\libmfd.a(w_pow.o)
 .debug_line    0x00003e18       0x85 c:/program files (x86)/microchip/xc32/v2.20/bin/bin/../../lib/gcc/pic32mx/4.8.3/../../../../pic32mx/lib/fpu64\libmfd.a(pic32_w_sqrt.o)
 .debug_line    0x00003e9d       0x78 c:/program files (x86)/microchip/xc32/v2.20/bin/bin/../../lib/gcc/pic32mx/4.8.3/../../../../pic32mx/lib/fpu64\libmfd.a(e_pow.o)
 .debug_line    0x00003f15       0x7d c:/program files (x86)/microchip/xc32/v2.20/bin/bin/../../lib/gcc/pic32mx/4.8.3/../../../../pic32mx/lib/fpu64\libmfd.a(k_standard.o)
 .debug_line    0x00003f92       0x79 c:/program files (x86)/microchip/xc32/v2.20/bin/bin/../../lib/gcc/pic32mx/4.8.3/../../../../pic32mx/lib/fpu64\libmfd.a(s_rint.o)
 .debug_line    0x0000400b       0x7b c:/program files (x86)/microchip/xc32/v2.20/bin/bin/../../lib/gcc/pic32mx/4.8.3/../../../../pic32mx/lib/fpu64\libmfd.a(s_scalbn.o)
 .debug_line    0x00004086       0xf7 c:/program files (x86)/microchip/xc32/v2.20/bin/bin/../../lib/gcc/pic32mx/4.8.3/fpu64\libgcc.a(_udivdi3.o)
 .debug_line    0x0000417d      0x109 c:/program files (x86)/microchip/xc32/v2.20/bin/bin/../../lib/gcc/pic32mx/4.8.3/fpu64\libgcc.a(_umoddi3.o)
 .debug_line    0x00004286       0x88 c:/program files (x86)/microchip/xc32/v2.20/bin/bin/../../lib/gcc/pic32mx/4.8.3/../../../../pic32mx/lib/fpu64\libpic32.a(write.o)
 .debug_line    0x0000430e        0x0 c:/program files (x86)/microchip/xc32/v2.20/bin/bin/../../lib/gcc/pic32mx/4.8.3/../../../../pic32mx/lib/fpu64\libpic32.a(errno.o)

.debug_frame    0x00000000     0x1424
 *.elf(.debug_frame)
 *(.debug_frame)
 .debug_frame   0x00000000       0x90 build/FFT/production/_ext/1360937237/neopixel.o
 .debug_frame   0x00000090      0x158 build/FFT/production/_ext/1360937237/FFT.o
 .debug_frame   0x000001e8       0x70 build/FFT/production/_ext/1360937237/ADCGather.o
 .debug_frame   0x00000258       0x50 build/FFT/production/_ext/1360937237/UART.o
 .debug_frame   0x000002a8       0x70 build/FFT/production/_ext/2109630876/plib_ocmp6.o
 .debug_frame   0x00000318       0x28 build/FFT/production/_ext/1360937237/main.o
 .debug_frame   0x00000340       0x28 build/FFT/production/_ext/1272119167/initialization.o
 .debug_frame   0x00000368      0x31c build/FFT/production/_ext/1272119167/interrupts.o
 .debug_frame   0x00000684       0x28 build/FFT/production/_ext/1272119167/exceptions.o
 .debug_frame   0x000006ac       0x40 build/FFT/production/_ext/489647995/xc32_monitor.o
 .debug_frame   0x000006ec       0x28 build/FFT/production/_ext/1317431971/plib_clk.o
 .debug_frame   0x00000714       0xa0 build/FFT/production/_ext/2109404916/plib_gpio.o
 .debug_frame   0x000007b4       0x80 build/FFT/production/_ext/2109351088/plib_evic.o
 .debug_frame   0x00000834       0x70 build/FFT/production/_ext/2109630876/plib_ocmp4.o
 .debug_frame   0x000008a4       0x70 build/FFT/production/_ext/2109630876/plib_ocmp2.o
 .debug_frame   0x00000914       0x70 build/FFT/production/_ext/2109630876/plib_ocmp3.o
 .debug_frame   0x00000984       0xd0 build/FFT/production/_ext/961138470/plib_adchs.o
 .debug_frame   0x00000a54      0x120 build/FFT/production/_ext/2109807859/plib_uart1.o
 .debug_frame   0x00000b74      0x288 build/FFT/production/_ext/1891070335/drv_usart.o
 .debug_frame   0x00000dfc       0xc8 build/FFT/production/_ext/1317415596/plib_tmr2.o
 .debug_frame   0x00000ec4       0xc8 build/FFT/production/_ext/1317415596/plib_tmr3.o
 .debug_frame   0x00000f8c       0x94 build/FFT/production/_ext/504070962/sys_int.o
 .debug_frame   0x00001020       0x40 build/FFT/production/_ext/980732774/sys_dma.o
 .debug_frame   0x00001060       0x40 build/FFT/production/_ext/1360937237/app.o
 .debug_frame   0x000010a0       0x28 build/FFT/production/_ext/1272119167/tasks.o
 .debug_frame   0x000010c8       0x2c c:/program files (x86)/microchip/xc32/v2.20/bin/bin/../../lib/gcc/pic32mx/4.8.3/../../../../pic32mx/lib/fpu64\libpic32.a(default-bootstrap-exception-handler.o)
 .debug_frame   0x000010f4       0x20 c:/program files (x86)/microchip/xc32/v2.20/bin/bin/../../lib/gcc/pic32mx/4.8.3/../../../../pic32mx/lib/fpu64\libpic32.a(default-on-reset.o)
 .debug_frame   0x00001114       0x20 c:/program files (x86)/microchip/xc32/v2.20/bin/bin/../../lib/gcc/pic32mx/4.8.3/../../../../pic32mx/lib/fpu64\libpic32.a(default-on-bootstrap.o)
 .debug_frame   0x00001134       0x20 c:/program files (x86)/microchip/xc32/v2.20/bin/bin/../../lib/gcc/pic32mx/4.8.3/../../../../pic32mx/lib/fpu64\libpic32.a(defaultinterrupt.o)
 .debug_frame   0x00001154       0x2c c:/program files (x86)/microchip/xc32/v2.20/bin/bin/../../lib/gcc/pic32mx/4.8.3/../../../../pic32mx/lib/fpu64\libpic32.a(default-cache-err-exception-handler.o)
 .debug_frame   0x00001180       0x2c c:/program files (x86)/microchip/xc32/v2.20/bin/bin/../../lib/gcc/pic32mx/4.8.3/../../../../pic32mx/lib/fpu64\libpic32.a(default-simple-tlb-refill-exception-handler.o)
 .debug_frame   0x000011ac       0x48 c:/program files (x86)/microchip/xc32/v2.20/bin/bin/../../lib/gcc/pic32mx/4.8.3/../../../../pic32mx/lib/fpu64\libc.a(puts.o)
 .debug_frame   0x000011f4       0x28 c:/program files (x86)/microchip/xc32/v2.20/bin/bin/../../lib/gcc/pic32mx/4.8.3/../../../../pic32mx/lib/fpu64\libc.a(printf_cdnopsuxX.eo)
 .debug_frame   0x0000121c       0x2c c:/program files (x86)/microchip/xc32/v2.20/bin/bin/../../lib/gcc/pic32mx/4.8.3/../../../../pic32mx/lib/fpu64\libc.a(_fputc_simple.o)
 .debug_frame   0x00001248       0x38 c:/program files (x86)/microchip/xc32/v2.20/bin/bin/../../lib/gcc/pic32mx/4.8.3/../../../../pic32mx/lib/fpu64\libc.a(doprnt_cdnopsuxX.eo)
 .debug_frame   0x00001280       0x28 c:/program files (x86)/microchip/xc32/v2.20/bin/bin/../../lib/gcc/pic32mx/4.8.3/../../../../pic32mx/lib/fpu64\libc.a(_flsbuf_simple.o)
 .debug_frame   0x000012a8       0x30 c:/program files (x86)/microchip/xc32/v2.20/bin/bin/../../lib/gcc/pic32mx/4.8.3/../../../../pic32mx/lib/fpu64\libmfd.a(w_pow.o)
 .debug_frame   0x000012d8       0x28 c:/program files (x86)/microchip/xc32/v2.20/bin/bin/../../lib/gcc/pic32mx/4.8.3/../../../../pic32mx/lib/fpu64\libmfd.a(pic32_w_sqrt.o)
 .debug_frame   0x00001300       0x28 c:/program files (x86)/microchip/xc32/v2.20/bin/bin/../../lib/gcc/pic32mx/4.8.3/../../../../pic32mx/lib/fpu64\libmfd.a(e_pow.o)
 .debug_frame   0x00001328       0x2c c:/program files (x86)/microchip/xc32/v2.20/bin/bin/../../lib/gcc/pic32mx/4.8.3/../../../../pic32mx/lib/fpu64\libmfd.a(k_standard.o)
 .debug_frame   0x00001354       0x28 c:/program files (x86)/microchip/xc32/v2.20/bin/bin/../../lib/gcc/pic32mx/4.8.3/../../../../pic32mx/lib/fpu64\libmfd.a(s_rint.o)
 .debug_frame   0x0000137c       0x30 c:/program files (x86)/microchip/xc32/v2.20/bin/bin/../../lib/gcc/pic32mx/4.8.3/../../../../pic32mx/lib/fpu64\libmfd.a(s_scalbn.o)
 .debug_frame   0x000013ac       0x20 c:/program files (x86)/microchip/xc32/v2.20/bin/bin/../../lib/gcc/pic32mx/4.8.3/fpu64\libgcc.a(_udivdi3.o)
 .debug_frame   0x000013cc       0x20 c:/program files (x86)/microchip/xc32/v2.20/bin/bin/../../lib/gcc/pic32mx/4.8.3/fpu64\libgcc.a(_umoddi3.o)
 .debug_frame   0x000013ec       0x38 c:/program files (x86)/microchip/xc32/v2.20/bin/bin/../../lib/gcc/pic32mx/4.8.3/../../../../pic32mx/lib/fpu64\libpic32.a(write.o)

.debug_str      0x00000000      0x203
 *.elf(.debug_str)
 *(.debug_str)
 .debug_str     0x00000000        0x0 build/FFT/production/_ext/1360937237/neopixel.o
 .debug_str     0x00000000       0x21 build/FFT/production/_ext/1360937237/FFT.o
 .debug_str     0x00000021        0x0 build/FFT/production/_ext/1360937237/ADCGather.o
 .debug_str     0x00000021        0x0 build/FFT/production/_ext/1360937237/UART.o
 .debug_str     0x00000021        0x0 build/FFT/production/_ext/2109630876/plib_ocmp6.o
 .debug_str     0x00000021        0x0 build/FFT/production/_ext/1360937237/main.o
 .debug_str     0x00000021       0x25 build/FFT/production/_ext/1272119167/initialization.o
 .debug_str     0x00000046        0x0 build/FFT/production/_ext/1272119167/interrupts.o
 .debug_str     0x00000046        0x0 build/FFT/production/_ext/1272119167/exceptions.o
 .debug_str     0x00000046        0x0 build/FFT/production/_ext/489647995/xc32_monitor.o
 .debug_str     0x00000046        0x0 build/FFT/production/_ext/1317431971/plib_clk.o
 .debug_str     0x00000046        0xa build/FFT/production/_ext/2109404916/plib_gpio.o
 .debug_str     0x00000050        0x7 build/FFT/production/_ext/2109351088/plib_evic.o
 .debug_str     0x00000057        0x0 build/FFT/production/_ext/2109630876/plib_ocmp4.o
 .debug_str     0x00000057        0x0 build/FFT/production/_ext/2109630876/plib_ocmp2.o
 .debug_str     0x00000057        0x0 build/FFT/production/_ext/2109630876/plib_ocmp3.o
 .debug_str     0x00000057       0x13 build/FFT/production/_ext/961138470/plib_adchs.o
 .debug_str     0x0000006a       0x10 build/FFT/production/_ext/2109807859/plib_uart1.o
 .debug_str     0x0000007a      0x169 build/FFT/production/_ext/1891070335/drv_usart.o
 .debug_str     0x000001e3        0xc build/FFT/production/_ext/1317415596/plib_tmr2.o
 .debug_str     0x000001ef        0xc build/FFT/production/_ext/1317415596/plib_tmr3.o
 .debug_str     0x000001fb        0x0 build/FFT/production/_ext/504070962/sys_int.o
 .debug_str     0x000001fb        0x8 build/FFT/production/_ext/980732774/sys_dma.o
 .debug_str     0x00000203        0x0 build/FFT/production/_ext/1360937237/app.o
 .debug_str     0x00000203        0x0 build/FFT/production/_ext/1272119167/tasks.o
 .debug_str     0x00000203        0x0 c:/program files (x86)/microchip/xc32/v2.20/bin/bin/../../lib/gcc/pic32mx/4.8.3/../../../../pic32mx/lib/fpu64\libpic32.a(default-bootstrap-exception-handler.o)
 .debug_str     0x00000203        0x0 c:/program files (x86)/microchip/xc32/v2.20/bin/bin/../../lib/gcc/pic32mx/4.8.3/../../../../pic32mx/lib/fpu64\libpic32.a(default-on-reset.o)
 .debug_str     0x00000203        0x0 c:/program files (x86)/microchip/xc32/v2.20/bin/bin/../../lib/gcc/pic32mx/4.8.3/../../../../pic32mx/lib/fpu64\libpic32.a(default-on-bootstrap.o)
 .debug_str     0x00000203        0x0 c:/program files (x86)/microchip/xc32/v2.20/bin/bin/../../lib/gcc/pic32mx/4.8.3/../../../../pic32mx/lib/fpu64\libpic32.a(defaultinterrupt.o)
 .debug_str     0x00000203        0x0 c:/program files (x86)/microchip/xc32/v2.20/bin/bin/../../lib/gcc/pic32mx/4.8.3/../../../../pic32mx/lib/fpu64\libpic32.a(default-cache-err-exception-handler.o)
 .debug_str     0x00000203        0x0 c:/program files (x86)/microchip/xc32/v2.20/bin/bin/../../lib/gcc/pic32mx/4.8.3/../../../../pic32mx/lib/fpu64\libpic32.a(default-simple-tlb-refill-exception-handler.o)
 .debug_str     0x00000203        0x0 c:/program files (x86)/microchip/xc32/v2.20/bin/bin/../../lib/gcc/pic32mx/4.8.3/../../../../pic32mx/lib/fpu64\libc.a(puts.o)
 .debug_str     0x00000203        0x0 c:/program files (x86)/microchip/xc32/v2.20/bin/bin/../../lib/gcc/pic32mx/4.8.3/../../../../pic32mx/lib/fpu64\libc.a(printf_cdnopsuxX.eo)
 .debug_str     0x00000203        0x0 c:/program files (x86)/microchip/xc32/v2.20/bin/bin/../../lib/gcc/pic32mx/4.8.3/../../../../pic32mx/lib/fpu64\libc.a(_iob.o)
 .debug_str     0x00000203        0x0 c:/program files (x86)/microchip/xc32/v2.20/bin/bin/../../lib/gcc/pic32mx/4.8.3/../../../../pic32mx/lib/fpu64\libc.a(_fputc_simple.o)
 .debug_str     0x00000203        0x0 c:/program files (x86)/microchip/xc32/v2.20/bin/bin/../../lib/gcc/pic32mx/4.8.3/../../../../pic32mx/lib/fpu64\libc.a(doprnt_cdnopsuxX.eo)
 .debug_str     0x00000203        0x0 c:/program files (x86)/microchip/xc32/v2.20/bin/bin/../../lib/gcc/pic32mx/4.8.3/../../../../pic32mx/lib/fpu64\libc.a(_flsbuf_simple.o)
 .debug_str     0x00000203        0x0 c:/program files (x86)/microchip/xc32/v2.20/bin/bin/../../lib/gcc/pic32mx/4.8.3/../../../../pic32mx/lib/fpu64\libc.a(ctype.o)
 .debug_str     0x00000203        0x0 c:/program files (x86)/microchip/xc32/v2.20/bin/bin/../../lib/gcc/pic32mx/4.8.3/../../../../pic32mx/lib/fpu64\libmfd.a(w_pow.o)
 .debug_str     0x00000203        0x0 c:/program files (x86)/microchip/xc32/v2.20/bin/bin/../../lib/gcc/pic32mx/4.8.3/../../../../pic32mx/lib/fpu64\libmfd.a(pic32_w_sqrt.o)
 .debug_str     0x00000203        0x0 c:/program files (x86)/microchip/xc32/v2.20/bin/bin/../../lib/gcc/pic32mx/4.8.3/../../../../pic32mx/lib/fpu64\libmfd.a(e_pow.o)
 .debug_str     0x00000203        0x0 c:/program files (x86)/microchip/xc32/v2.20/bin/bin/../../lib/gcc/pic32mx/4.8.3/../../../../pic32mx/lib/fpu64\libmfd.a(k_standard.o)
 .debug_str     0x00000203        0x0 c:/program files (x86)/microchip/xc32/v2.20/bin/bin/../../lib/gcc/pic32mx/4.8.3/../../../../pic32mx/lib/fpu64\libmfd.a(s_rint.o)
 .debug_str     0x00000203        0x0 c:/program files (x86)/microchip/xc32/v2.20/bin/bin/../../lib/gcc/pic32mx/4.8.3/../../../../pic32mx/lib/fpu64\libmfd.a(s_scalbn.o)
 .debug_str     0x00000203        0x0 c:/program files (x86)/microchip/xc32/v2.20/bin/bin/../../lib/gcc/pic32mx/4.8.3/fpu64\libgcc.a(_udivdi3.o)
 .debug_str     0x00000203        0x0 c:/program files (x86)/microchip/xc32/v2.20/bin/bin/../../lib/gcc/pic32mx/4.8.3/fpu64\libgcc.a(_umoddi3.o)
 .debug_str     0x00000203        0x0 c:/program files (x86)/microchip/xc32/v2.20/bin/bin/../../lib/gcc/pic32mx/4.8.3/../../../../pic32mx/lib/fpu64\libpic32.a(write.o)
 .debug_str     0x00000203        0x0 c:/program files (x86)/microchip/xc32/v2.20/bin/bin/../../lib/gcc/pic32mx/4.8.3/../../../../pic32mx/lib/fpu64\libpic32.a(errno.o)

.debug_loc      0x00000000     0x3d9b
 *.elf(.debug_loc)
 *(.debug_loc)
 .debug_loc     0x00000000      0x156 build/FFT/production/_ext/1360937237/neopixel.o
 .debug_loc     0x00000156      0xa55 build/FFT/production/_ext/1360937237/FFT.o
 .debug_loc     0x00000bab       0x21 build/FFT/production/_ext/1360937237/ADCGather.o
 .debug_loc     0x00000bcc       0x21 build/FFT/production/_ext/1272119167/initialization.o
 .debug_loc     0x00000bed       0x77 build/FFT/production/_ext/489647995/xc32_monitor.o
 .debug_loc     0x00000c64       0x32 build/FFT/production/_ext/1317431971/plib_clk.o
 .debug_loc     0x00000c96      0x129 build/FFT/production/_ext/2109404916/plib_gpio.o
 .debug_loc     0x00000dbf       0x84 build/FFT/production/_ext/2109351088/plib_evic.o
 .debug_loc     0x00000e43      0x1c4 build/FFT/production/_ext/961138470/plib_adchs.o
 .debug_loc     0x00001007      0x3d8 build/FFT/production/_ext/2109807859/plib_uart1.o
 .debug_loc     0x000013df     0x133e build/FFT/production/_ext/1891070335/drv_usart.o
 .debug_loc     0x0000271d       0x13 build/FFT/production/_ext/1317415596/plib_tmr2.o
 .debug_loc     0x00002730       0x13 build/FFT/production/_ext/1317415596/plib_tmr3.o
 .debug_loc     0x00002743       0xc1 build/FFT/production/_ext/504070962/sys_int.o
 .debug_loc     0x00002804       0x34 build/FFT/production/_ext/1360937237/app.o
 .debug_loc     0x00002838       0x2c c:/program files (x86)/microchip/xc32/v2.20/bin/bin/../../lib/gcc/pic32mx/4.8.3/../../../../pic32mx/lib/fpu64\libpic32.a(default-bootstrap-exception-handler.o)
 .debug_loc     0x00002864       0x2c c:/program files (x86)/microchip/xc32/v2.20/bin/bin/../../lib/gcc/pic32mx/4.8.3/../../../../pic32mx/lib/fpu64\libpic32.a(default-cache-err-exception-handler.o)
 .debug_loc     0x00002890       0x2c c:/program files (x86)/microchip/xc32/v2.20/bin/bin/../../lib/gcc/pic32mx/4.8.3/../../../../pic32mx/lib/fpu64\libpic32.a(default-simple-tlb-refill-exception-handler.o)
 .debug_loc     0x000028bc      0xa6a c:/program files (x86)/microchip/xc32/v2.20/bin/bin/../../lib/gcc/pic32mx/4.8.3/fpu64\libgcc.a(_udivdi3.o)
 .debug_loc     0x00003326      0xa3d c:/program files (x86)/microchip/xc32/v2.20/bin/bin/../../lib/gcc/pic32mx/4.8.3/fpu64\libgcc.a(_umoddi3.o)
 .debug_loc     0x00003d63       0x38 c:/program files (x86)/microchip/xc32/v2.20/bin/bin/../../lib/gcc/pic32mx/4.8.3/../../../../pic32mx/lib/fpu64\libpic32.a(write.o)

.debug_macinfo
 *.elf(.debug_macinfo)
 *(.debug_macinfo)

.debug_weaknames
 *.elf(.debug_weaknames)
 *(.debug_weaknames)

.debug_funcnames
 *.elf(.debug_funcnames)
 *(.debug_funcnames)

.debug_typenames
 *.elf(.debug_typenames)
 *(.debug_typenames)

.debug_varnames
 *.elf(.debug_varnames)
 *(.debug_varnames)

.debug_pubtypes
 *.elf(.debug_pubtypes)
 *(.debug_pubtypes)

.debug_ranges   0x00000000      0xa08
 *.elf(.debug_ranges)
 *(.debug_ranges)
 .debug_ranges  0x00000000       0x58 build/FFT/production/_ext/1360937237/neopixel.o
 .debug_ranges  0x00000058      0x150 build/FFT/production/_ext/1360937237/FFT.o
 .debug_ranges  0x000001a8       0x30 build/FFT/production/_ext/1360937237/ADCGather.o
 .debug_ranges  0x000001d8       0x20 build/FFT/production/_ext/1360937237/UART.o
 .debug_ranges  0x000001f8       0x38 build/FFT/production/_ext/2109630876/plib_ocmp6.o
 .debug_ranges  0x00000230       0x10 build/FFT/production/_ext/1360937237/main.o
 .debug_ranges  0x00000240       0x10 build/FFT/production/_ext/1272119167/initialization.o
 .debug_ranges  0x00000250       0x30 build/FFT/production/_ext/1272119167/interrupts.o
 .debug_ranges  0x00000280       0x10 build/FFT/production/_ext/1272119167/exceptions.o
 .debug_ranges  0x00000290       0x18 build/FFT/production/_ext/489647995/xc32_monitor.o
 .debug_ranges  0x000002a8       0x10 build/FFT/production/_ext/1317431971/plib_clk.o
 .debug_ranges  0x000002b8       0x50 build/FFT/production/_ext/2109404916/plib_gpio.o
 .debug_ranges  0x00000308       0x40 build/FFT/production/_ext/2109351088/plib_evic.o
 .debug_ranges  0x00000348       0x38 build/FFT/production/_ext/2109630876/plib_ocmp4.o
 .debug_ranges  0x00000380       0x38 build/FFT/production/_ext/2109630876/plib_ocmp2.o
 .debug_ranges  0x000003b8       0x38 build/FFT/production/_ext/2109630876/plib_ocmp3.o
 .debug_ranges  0x000003f0       0x68 build/FFT/production/_ext/961138470/plib_adchs.o
 .debug_ranges  0x00000458       0x98 build/FFT/production/_ext/2109807859/plib_uart1.o
 .debug_ranges  0x000004f0      0x140 build/FFT/production/_ext/1891070335/drv_usart.o
 .debug_ranges  0x00000630       0x60 build/FFT/production/_ext/1317415596/plib_tmr2.o
 .debug_ranges  0x00000690       0x60 build/FFT/production/_ext/1317415596/plib_tmr3.o
 .debug_ranges  0x000006f0       0x30 build/FFT/production/_ext/504070962/sys_int.o
 .debug_ranges  0x00000720       0x20 build/FFT/production/_ext/980732774/sys_dma.o
 .debug_ranges  0x00000740       0x18 build/FFT/production/_ext/1360937237/app.o
 .debug_ranges  0x00000758       0x10 build/FFT/production/_ext/1272119167/tasks.o
 .debug_ranges  0x00000768       0x10 c:/program files (x86)/microchip/xc32/v2.20/bin/bin/../../lib/gcc/pic32mx/4.8.3/../../../../pic32mx/lib/fpu64\libpic32.a(default-bootstrap-exception-handler.o)
 .debug_ranges  0x00000778       0x10 c:/program files (x86)/microchip/xc32/v2.20/bin/bin/../../lib/gcc/pic32mx/4.8.3/../../../../pic32mx/lib/fpu64\libpic32.a(default-on-reset.o)
 .debug_ranges  0x00000788       0x10 c:/program files (x86)/microchip/xc32/v2.20/bin/bin/../../lib/gcc/pic32mx/4.8.3/../../../../pic32mx/lib/fpu64\libpic32.a(default-on-bootstrap.o)
 .debug_ranges  0x00000798       0x10 c:/program files (x86)/microchip/xc32/v2.20/bin/bin/../../lib/gcc/pic32mx/4.8.3/../../../../pic32mx/lib/fpu64\libpic32.a(defaultinterrupt.o)
 .debug_ranges  0x000007a8       0x10 c:/program files (x86)/microchip/xc32/v2.20/bin/bin/../../lib/gcc/pic32mx/4.8.3/../../../../pic32mx/lib/fpu64\libpic32.a(default-cache-err-exception-handler.o)
 .debug_ranges  0x000007b8       0x10 c:/program files (x86)/microchip/xc32/v2.20/bin/bin/../../lib/gcc/pic32mx/4.8.3/../../../../pic32mx/lib/fpu64\libpic32.a(default-simple-tlb-refill-exception-handler.o)
 .debug_ranges  0x000007c8       0x18 c:/program files (x86)/microchip/xc32/v2.20/bin/bin/../../lib/gcc/pic32mx/4.8.3/../../../../pic32mx/lib/fpu64\libc.a(puts.o)
 .debug_ranges  0x000007e0       0x10 c:/program files (x86)/microchip/xc32/v2.20/bin/bin/../../lib/gcc/pic32mx/4.8.3/../../../../pic32mx/lib/fpu64\libc.a(printf_cdnopsuxX.eo)
 .debug_ranges  0x000007f0       0x10 c:/program files (x86)/microchip/xc32/v2.20/bin/bin/../../lib/gcc/pic32mx/4.8.3/../../../../pic32mx/lib/fpu64\libc.a(_fputc_simple.o)
 .debug_ranges  0x00000800       0x10 c:/program files (x86)/microchip/xc32/v2.20/bin/bin/../../lib/gcc/pic32mx/4.8.3/../../../../pic32mx/lib/fpu64\libc.a(doprnt_cdnopsuxX.eo)
 .debug_ranges  0x00000810       0x10 c:/program files (x86)/microchip/xc32/v2.20/bin/bin/../../lib/gcc/pic32mx/4.8.3/../../../../pic32mx/lib/fpu64\libc.a(_flsbuf_simple.o)
 .debug_ranges  0x00000820       0x10 c:/program files (x86)/microchip/xc32/v2.20/bin/bin/../../lib/gcc/pic32mx/4.8.3/../../../../pic32mx/lib/fpu64\libmfd.a(w_pow.o)
 .debug_ranges  0x00000830       0x10 c:/program files (x86)/microchip/xc32/v2.20/bin/bin/../../lib/gcc/pic32mx/4.8.3/../../../../pic32mx/lib/fpu64\libmfd.a(pic32_w_sqrt.o)
 .debug_ranges  0x00000840       0x10 c:/program files (x86)/microchip/xc32/v2.20/bin/bin/../../lib/gcc/pic32mx/4.8.3/../../../../pic32mx/lib/fpu64\libmfd.a(e_pow.o)
 .debug_ranges  0x00000850       0x10 c:/program files (x86)/microchip/xc32/v2.20/bin/bin/../../lib/gcc/pic32mx/4.8.3/../../../../pic32mx/lib/fpu64\libmfd.a(k_standard.o)
 .debug_ranges  0x00000860       0x10 c:/program files (x86)/microchip/xc32/v2.20/bin/bin/../../lib/gcc/pic32mx/4.8.3/../../../../pic32mx/lib/fpu64\libmfd.a(s_rint.o)
 .debug_ranges  0x00000870       0x18 c:/program files (x86)/microchip/xc32/v2.20/bin/bin/../../lib/gcc/pic32mx/4.8.3/../../../../pic32mx/lib/fpu64\libmfd.a(s_scalbn.o)
 .debug_ranges  0x00000888       0x98 c:/program files (x86)/microchip/xc32/v2.20/bin/bin/../../lib/gcc/pic32mx/4.8.3/fpu64\libgcc.a(_udivdi3.o)
 .debug_ranges  0x00000920       0xd8 c:/program files (x86)/microchip/xc32/v2.20/bin/bin/../../lib/gcc/pic32mx/4.8.3/fpu64\libgcc.a(_umoddi3.o)
 .debug_ranges  0x000009f8       0x10 c:/program files (x86)/microchip/xc32/v2.20/bin/bin/../../lib/gcc/pic32mx/4.8.3/../../../../pic32mx/lib/fpu64\libpic32.a(write.o)

.gnu.attributes
                0x00000000       0x10
 *(.gnu.attributes)
 .gnu.attributes
                0x00000000       0x10 build/FFT/production/_ext/1360937237/neopixel.o
 .gnu.attributes
                0x00000010       0x10 build/FFT/production/_ext/1360937237/FFT.o
 .gnu.attributes
                0x00000020       0x10 build/FFT/production/_ext/1360937237/ADCGather.o
 .gnu.attributes
                0x00000030       0x10 build/FFT/production/_ext/1360937237/UART.o
 .gnu.attributes
                0x00000040       0x10 build/FFT/production/_ext/2109630876/plib_ocmp6.o
 .gnu.attributes
                0x00000050       0x10 build/FFT/production/_ext/1360937237/main.o
 .gnu.attributes
                0x00000060       0x10 build/FFT/production/_ext/1272119167/initialization.o
 .gnu.attributes
                0x00000070       0x10 build/FFT/production/_ext/1272119167/interrupts.o
 .gnu.attributes
                0x00000080       0x10 build/FFT/production/_ext/1272119167/exceptions.o
 .gnu.attributes
                0x00000090       0x10 build/FFT/production/_ext/489647995/xc32_monitor.o
 .gnu.attributes
                0x000000a0       0x10 build/FFT/production/_ext/1317431971/plib_clk.o
 .gnu.attributes
                0x000000b0       0x10 build/FFT/production/_ext/2109404916/plib_gpio.o
 .gnu.attributes
                0x000000c0       0x10 build/FFT/production/_ext/2109351088/plib_evic.o
 .gnu.attributes
                0x000000d0       0x10 build/FFT/production/_ext/2109630876/plib_ocmp4.o
 .gnu.attributes
                0x000000e0       0x10 build/FFT/production/_ext/2109630876/plib_ocmp2.o
 .gnu.attributes
                0x000000f0       0x10 build/FFT/production/_ext/2109630876/plib_ocmp3.o
 .gnu.attributes
                0x00000100       0x10 build/FFT/production/_ext/961138470/plib_adchs.o
 .gnu.attributes
                0x00000110       0x10 build/FFT/production/_ext/2109807859/plib_uart1.o
 .gnu.attributes
                0x00000120       0x10 build/FFT/production/_ext/1891070335/drv_usart.o
 .gnu.attributes
                0x00000130       0x10 build/FFT/production/_ext/1317415596/plib_tmr2.o
 .gnu.attributes
                0x00000140       0x10 build/FFT/production/_ext/1317415596/plib_tmr3.o
 .gnu.attributes
                0x00000150       0x10 build/FFT/production/_ext/504070962/sys_int.o
 .gnu.attributes
                0x00000160       0x10 build/FFT/production/_ext/980732774/sys_dma.o
 .gnu.attributes
                0x00000170       0x10 build/FFT/production/_ext/1360937237/app.o
 .gnu.attributes
                0x00000180       0x10 build/FFT/production/_ext/1272119167/tasks.o
 .gnu.attributes
                0x00000190       0x10 c:/program files (x86)/microchip/xc32/v2.20/bin/bin/../../lib/gcc/pic32mx/4.8.3/../../../../pic32mx/lib/fpu64\libpic32.a(default-bootstrap-exception-handler.o)
 .gnu.attributes
                0x000001a0       0x10 c:/program files (x86)/microchip/xc32/v2.20/bin/bin/../../lib/gcc/pic32mx/4.8.3/../../../../pic32mx/lib/fpu64\libpic32.a(default-on-reset.o)
 .gnu.attributes
                0x000001b0       0x10 c:/program files (x86)/microchip/xc32/v2.20/bin/bin/../../lib/gcc/pic32mx/4.8.3/../../../../pic32mx/lib/fpu64\libpic32.a(default-on-bootstrap.o)
 .gnu.attributes
                0x000001c0       0x10 c:/program files (x86)/microchip/xc32/v2.20/bin/bin/../../lib/gcc/pic32mx/4.8.3/../../../../pic32mx/lib/fpu64\libpic32.a(defaultinterrupt.o)
 .gnu.attributes
                0x000001d0       0x10 c:/program files (x86)/microchip/xc32/v2.20/bin/bin/../../lib/gcc/pic32mx/4.8.3/../../../../pic32mx/lib/fpu64\libpic32.a(default-cache-err-exception-handler.o)
 .gnu.attributes
                0x000001e0       0x10 c:/program files (x86)/microchip/xc32/v2.20/bin/bin/../../lib/gcc/pic32mx/4.8.3/../../../../pic32mx/lib/fpu64\libpic32.a(default-simple-tlb-refill-exception-handler.o)
 .gnu.attributes
                0x000001f0       0x10 c:/program files (x86)/microchip/xc32/v2.20/bin/bin/../../lib/gcc/pic32mx/4.8.3/../../../../pic32mx/lib/fpu64\libc.a(puts.o)
 .gnu.attributes
                0x00000200       0x10 c:/program files (x86)/microchip/xc32/v2.20/bin/bin/../../lib/gcc/pic32mx/4.8.3/../../../../pic32mx/lib/fpu64\libc.a(printf_cdnopsuxX.eo)
 .gnu.attributes
                0x00000210       0x10 c:/program files (x86)/microchip/xc32/v2.20/bin/bin/../../lib/gcc/pic32mx/4.8.3/../../../../pic32mx/lib/fpu64\libc.a(_iob.o)
 .gnu.attributes
                0x00000220       0x10 c:/program files (x86)/microchip/xc32/v2.20/bin/bin/../../lib/gcc/pic32mx/4.8.3/../../../../pic32mx/lib/fpu64\libc.a(_fputc_simple.o)
 .gnu.attributes
                0x00000230       0x10 c:/program files (x86)/microchip/xc32/v2.20/bin/bin/../../lib/gcc/pic32mx/4.8.3/../../../../pic32mx/lib/fpu64\libc.a(doprnt_cdnopsuxX.eo)
 .gnu.attributes
                0x00000240       0x10 c:/program files (x86)/microchip/xc32/v2.20/bin/bin/../../lib/gcc/pic32mx/4.8.3/../../../../pic32mx/lib/fpu64\libc.a(_flsbuf_simple.o)
 .gnu.attributes
                0x00000250       0x10 c:/program files (x86)/microchip/xc32/v2.20/bin/bin/../../lib/gcc/pic32mx/4.8.3/../../../../pic32mx/lib/fpu64\libc.a(ctype.o)
 .gnu.attributes
                0x00000260       0x10 c:/program files (x86)/microchip/xc32/v2.20/bin/bin/../../lib/gcc/pic32mx/4.8.3/../../../../pic32mx/lib/fpu64\libmfd.a(w_pow.o)
 .gnu.attributes
                0x00000270       0x10 c:/program files (x86)/microchip/xc32/v2.20/bin/bin/../../lib/gcc/pic32mx/4.8.3/../../../../pic32mx/lib/fpu64\libmfd.a(pic32_w_sqrt.o)
 .gnu.attributes
                0x00000280       0x10 c:/program files (x86)/microchip/xc32/v2.20/bin/bin/../../lib/gcc/pic32mx/4.8.3/../../../../pic32mx/lib/fpu64\libmfd.a(e_pow.o)
 .gnu.attributes
                0x00000290       0x10 c:/program files (x86)/microchip/xc32/v2.20/bin/bin/../../lib/gcc/pic32mx/4.8.3/../../../../pic32mx/lib/fpu64\libmfd.a(k_standard.o)
 .gnu.attributes
                0x000002a0       0x10 c:/program files (x86)/microchip/xc32/v2.20/bin/bin/../../lib/gcc/pic32mx/4.8.3/../../../../pic32mx/lib/fpu64\libmfd.a(s_rint.o)
 .gnu.attributes
                0x000002b0       0x10 c:/program files (x86)/microchip/xc32/v2.20/bin/bin/../../lib/gcc/pic32mx/4.8.3/../../../../pic32mx/lib/fpu64\libmfd.a(s_scalbn.o)
 .gnu.attributes
                0x000002c0       0x10 c:/program files (x86)/microchip/xc32/v2.20/bin/bin/../../lib/gcc/pic32mx/4.8.3/fpu64\libgcc.a(_udivdi3.o)
 .gnu.attributes
                0x000002d0       0x10 c:/program files (x86)/microchip/xc32/v2.20/bin/bin/../../lib/gcc/pic32mx/4.8.3/fpu64\libgcc.a(_umoddi3.o)
 .gnu.attributes
                0x000002e0       0x10 c:/program files (x86)/microchip/xc32/v2.20/bin/bin/../../lib/gcc/pic32mx/4.8.3/../../../../pic32mx/lib/fpu64\libpic32.a(write.o)
 .gnu.attributes
                0x000002f0       0x10 c:/program files (x86)/microchip/xc32/v2.20/bin/bin/../../lib/gcc/pic32mx/4.8.3/../../../../pic32mx/lib/fpu64\libpic32.a(errno.o)
                0x9d000000                PROVIDE (__pic32_init_cache_program_base_addr, 0x9d000000)
                0x80000000                PROVIDE (__pic32_init_cache_data_base_addr, 0x80000000)
                0xd0000000                PROVIDE (__pic32_init_sqi_kseg2_virtual_base_addr, 0xd0000000)
                0x30000000                PROVIDE (__pic32_init_sqi_kseg2_physical_base_addr, 0x30000000)
                0x0000001f                PROVIDE (__pic32_init_sqi_kseg2_entrylo0_bitset, 0x1f)
                0xd0000000                __pic32_tlb_0_entryhi = __pic32_init_sqi_kseg2_virtual_base_addr
                0x00c0001f                __pic32_tlb_0_entrylo0 = ((__pic32_init_sqi_kseg2_physical_base_addr >> 0x6) | __pic32_init_sqi_kseg2_entrylo0_bitset)
                0x00c4001f                __pic32_tlb_0_entrylo1 = (__pic32_tlb_0_entrylo0 | ((__pic32_init_sqi_kseg2_physical_base_addr + 0x1000000) >> 0x6))
                0xd2000000                __pic32_tlb_1_entryhi = (__pic32_init_sqi_kseg2_virtual_base_addr + 0x2000000)
                0x00c8001f                __pic32_tlb_1_entrylo0 = (((__pic32_init_sqi_kseg2_physical_base_addr + 0x2000000) >> 0x6) | __pic32_init_sqi_kseg2_entrylo0_bitset)
                0x00cc001f                __pic32_tlb_1_entrylo1 = (__pic32_tlb_1_entrylo0 | 0x40000)
                0xf0000000                PROVIDE (__pic32_init_sqi_kseg3_virtual_base_addr, 0xf0000000)
                0x30000000                PROVIDE (__pic32_init_sqi_kseg3_physical_base_addr, 0x30000000)
                0x00000017                PROVIDE (__pic32_init_sqi_kseg3_entrylo0_bitset, 0x17)
                0xf0000000                __pic32_tlb_2_entryhi = __pic32_init_sqi_kseg3_virtual_base_addr
                0x00c00017                __pic32_tlb_2_entrylo0 = ((__pic32_init_sqi_kseg3_physical_base_addr >> 0x6) | __pic32_init_sqi_kseg3_entrylo0_bitset)
                0x00c40017                __pic32_tlb_2_entrylo1 = (__pic32_tlb_2_entrylo0 | ((__pic32_init_sqi_kseg3_physical_base_addr + 0x1000000) >> 0x6))
                0xf2000000                __pic32_tlb_3_entryhi = (__pic32_init_sqi_kseg3_virtual_base_addr + 0x2000000)
                0x00c80017                __pic32_tlb_3_entrylo0 = (((__pic32_init_sqi_kseg3_physical_base_addr + 0x2000000) >> 0x6) | __pic32_init_sqi_kseg3_entrylo0_bitset)
                0x00cc0017                __pic32_tlb_3_entrylo1 = (__pic32_tlb_3_entrylo0 | 0x40000)
                0xc0000000                PROVIDE (__pic32_init_ebi_kseg2_virtual_base_addr, 0xc0000000)
                0x20000000                PROVIDE (__pic32_init_ebi_kseg2_physical_base_addr, 0x20000000)
                0x0000001f                PROVIDE (__pic32_init_ebi_kseg2_entrylo0_bitset, 0x1f)
                0xc0000000                __pic32_tlb_4_entryhi = __pic32_init_ebi_kseg2_virtual_base_addr
                0x0080001f                __pic32_tlb_4_entrylo0 = ((__pic32_init_ebi_kseg2_physical_base_addr >> 0x6) | __pic32_init_ebi_kseg2_entrylo0_bitset)
                0x0084001f                __pic32_tlb_4_entrylo1 = (__pic32_tlb_4_entrylo0 | ((__pic32_init_ebi_kseg2_physical_base_addr + 0x1000000) >> 0x6))
                0xc2000000                __pic32_tlb_5_entryhi = (__pic32_init_ebi_kseg2_virtual_base_addr + 0x2000000)
                0x0088001f                __pic32_tlb_5_entrylo0 = (((__pic32_init_ebi_kseg2_physical_base_addr + 0x2000000) >> 0x6) | __pic32_init_ebi_kseg2_entrylo0_bitset)
                0x008c001f                __pic32_tlb_5_entrylo1 = (__pic32_tlb_5_entrylo0 | 0x40000)
                0xe0000000                PROVIDE (__pic32_init_ebi_kseg3_virtual_base_addr, 0xe0000000)
                0x20000000                PROVIDE (__pic32_init_ebi_kseg3_physical_base_addr, 0x20000000)
                0x00000017                PROVIDE (__pic32_init_ebi_kseg3_entrylo0_bitset, 0x17)
                0xe0000000                __pic32_tlb_6_entryhi = __pic32_init_ebi_kseg3_virtual_base_addr
                0x00800017                __pic32_tlb_6_entrylo0 = ((__pic32_init_ebi_kseg3_physical_base_addr >> 0x6) | __pic32_init_ebi_kseg3_entrylo0_bitset)
                0x00840017                __pic32_tlb_6_entrylo1 = (__pic32_tlb_6_entrylo0 | ((__pic32_init_ebi_kseg3_physical_base_addr + 0x1000000) >> 0x6))
                0xe2000000                __pic32_tlb_7_entryhi = (__pic32_init_ebi_kseg3_virtual_base_addr + 0x2000000)
                0x00880017                __pic32_tlb_7_entrylo0 = (((__pic32_init_ebi_kseg3_physical_base_addr + 0x2000000) >> 0x6) | __pic32_init_ebi_kseg3_entrylo0_bitset)
                0x008c0017                __pic32_tlb_7_entrylo1 = (__pic32_tlb_7_entrylo0 | 0x40000)

.tlb_init_values
                0xbfc00670       0x60
                0xbfc00670                . = ALIGN (0x4)
                0xbfc00670                __pic32_tlb_init_values_begin = ABSOLUTE (.)
                0xbfc00670        0x4 LONG 0xd0000000 __pic32_tlb_0_entryhi
                0xbfc00674        0x4 LONG 0xc0001f __pic32_tlb_0_entrylo0
                0xbfc00678        0x4 LONG 0xc4001f __pic32_tlb_0_entrylo1
                0xbfc0067c        0x4 LONG 0xd2000000 __pic32_tlb_1_entryhi
                0xbfc00680        0x4 LONG 0xc8001f __pic32_tlb_1_entrylo0
                0xbfc00684        0x4 LONG 0xcc001f __pic32_tlb_1_entrylo1
                0xbfc00688        0x4 LONG 0xf0000000 __pic32_tlb_2_entryhi
                0xbfc0068c        0x4 LONG 0xc00017 __pic32_tlb_2_entrylo0
                0xbfc00690        0x4 LONG 0xc40017 __pic32_tlb_2_entrylo1
                0xbfc00694        0x4 LONG 0xf2000000 __pic32_tlb_3_entryhi
                0xbfc00698        0x4 LONG 0xc80017 __pic32_tlb_3_entrylo0
                0xbfc0069c        0x4 LONG 0xcc0017 __pic32_tlb_3_entrylo1
                0xbfc006a0        0x4 LONG 0xc0000000 __pic32_tlb_4_entryhi
                0xbfc006a4        0x4 LONG 0x80001f __pic32_tlb_4_entrylo0
                0xbfc006a8        0x4 LONG 0x84001f __pic32_tlb_4_entrylo1
                0xbfc006ac        0x4 LONG 0xc2000000 __pic32_tlb_5_entryhi
                0xbfc006b0        0x4 LONG 0x88001f __pic32_tlb_5_entrylo0
                0xbfc006b4        0x4 LONG 0x8c001f __pic32_tlb_5_entrylo1
                0xbfc006b8        0x4 LONG 0xe0000000 __pic32_tlb_6_entryhi
                0xbfc006bc        0x4 LONG 0x800017 __pic32_tlb_6_entrylo0
                0xbfc006c0        0x4 LONG 0x840017 __pic32_tlb_6_entrylo1
                0xbfc006c4        0x4 LONG 0xe2000000 __pic32_tlb_7_entryhi
                0xbfc006c8        0x4 LONG 0x880017 __pic32_tlb_7_entrylo0
                0xbfc006cc        0x4 LONG 0x8c0017 __pic32_tlb_7_entrylo1
                0xbfc006d0                __pic32_tlb_init_values_end = ABSOLUTE (.)
                0x00000008                __pic32_tlb_init_values_count = 0x8
LOAD c:/program files (x86)/microchip/xc32/v2.20/bin/bin/../../lib/gcc/pic32mx/4.8.3/fpu64\libgcc.a
START GROUP
LOAD c:/program files (x86)/microchip/xc32/v2.20/bin/bin/../../lib/gcc/pic32mx/4.8.3/../../../../pic32mx/lib/fpu64\libpic32.a
LOAD c:/program files (x86)/microchip/xc32/v2.20/bin/bin/../../lib/gcc/pic32mx/4.8.3/../../../../pic32mx/lib/fpu64\libdebug.a
LOAD c:/program files (x86)/microchip/xc32/v2.20/bin/bin/../../lib/gcc/pic32mx/4.8.3/../../../../pic32mx/lib/fpu64\libpic32.a
LOAD c:/program files (x86)/microchip/xc32/v2.20/bin/bin/../../lib/gcc/pic32mx/4.8.3/../../../../pic32mx/lib/fpu64\libc.a
LOAD c:/program files (x86)/microchip/xc32/v2.20/bin/bin/../../lib/gcc/pic32mx/4.8.3/../../../../pic32mx/lib/fpu64\libc.a
LOAD c:/program files (x86)/microchip/xc32/v2.20/bin/bin/../../lib/gcc/pic32mx/4.8.3/../../../../pic32mx/lib/fpu64\libmfd.a
LOAD c:/program files (x86)/microchip/xc32/v2.20/bin/bin/../../lib/gcc/pic32mx/4.8.3/../../../../pic32mx/lib/fpu64\libm.a
LOAD c:/program files (x86)/microchip/xc32/v2.20/bin/bin/../../lib/gcc/pic32mx/4.8.3/../../../../pic32mx/lib/fpu64\libe.a
LOAD c:/program files (x86)/microchip/xc32/v2.20/bin/bin/../../lib/gcc/pic32mx/4.8.3/../../../../pic32mx/lib/fpu64\libdspr2.a
LOAD c:/program files (x86)/microchip/xc32/v2.20/bin/bin/../../lib/gcc/pic32mx/4.8.3/../../../../pic32mx/lib/fpu64\libdsp.a
LOAD c:/program files (x86)/microchip/xc32/v2.20/bin/bin/../../lib/gcc/pic32mx/4.8.3/fpu64\libgcc.a
LOAD c:/program files (x86)/microchip/xc32/v2.20/bin/bin/../../lib/gcc/pic32mx/4.8.3/../../../../pic32mx/lib/fpu64\libpic32.a
END GROUP
LOAD c:/program files (x86)/microchip/xc32/v2.20/bin/bin/../../lib/gcc/pic32mx/4.8.3/fpu64\libgcc.a
OUTPUT(dist/FFT/production/FFT.X.production.elf elf32-tradlittlemips)
LOAD stack
LOAD data_init

.reginfo        0x00000000       0x18
 .reginfo       0x00000000       0x18 c:/program files (x86)/microchip/xc32/v2.20/bin/bin/../../lib/gcc/pic32mx/4.8.3/../../../../pic32mx/lib/fpu64\debug-exception-return.o

.stack          0x800008f0      0x400
 .stack         0x800008f0      0x400 stack

.__vector_offset_BF810540_data
                0xbf810540      0x178
 .__vector_offset_BF810540_data
                0xbf810540      0x178 c:/program files (x86)/microchip/xc32/v2.20/bin/bin/../../lib/gcc/pic32mx/4.8.3/../../../../pic32mx/lib/./proc/32MZ2048EFG100\vector_offset_init.o

.__vector_offset_BF8107A4_data
                0xbf8107a4       0x98
 .__vector_offset_BF8107A4_data
                0xbf8107a4       0x98 c:/program files (x86)/microchip/xc32/v2.20/bin/bin/../../lib/gcc/pic32mx/4.8.3/../../../../pic32mx/lib/./proc/32MZ2048EFG100\vector_offset_init.o

.__vector_offset_BF810740_data
                0xbf810740       0x5c
 .__vector_offset_BF810740_data
                0xbf810740       0x5c c:/program files (x86)/microchip/xc32/v2.20/bin/bin/../../lib/gcc/pic32mx/4.8.3/../../../../pic32mx/lib/./proc/32MZ2048EFG100\vector_offset_init.o

.__vector_offset_BF8106F4_data
                0xbf8106f4       0x40
 .__vector_offset_BF8106F4_data
                0xbf8106f4       0x40 c:/program files (x86)/microchip/xc32/v2.20/bin/bin/../../lib/gcc/pic32mx/4.8.3/../../../../pic32mx/lib/./proc/32MZ2048EFG100\vector_offset_init.o

.__vector_offset_BF810874_data
                0xbf810874       0x18
 .__vector_offset_BF810874_data
                0xbf810874       0x18 c:/program files (x86)/microchip/xc32/v2.20/bin/bin/../../lib/gcc/pic32mx/4.8.3/../../../../pic32mx/lib/./proc/32MZ2048EFG100\vector_offset_init.o

.__vector_offset_BF8106D8_data
                0xbf8106d8       0x14
 .__vector_offset_BF8106D8_data
                0xbf8106d8       0x14 c:/program files (x86)/microchip/xc32/v2.20/bin/bin/../../lib/gcc/pic32mx/4.8.3/../../../../pic32mx/lib/./proc/32MZ2048EFG100\vector_offset_init.o

.__vector_offset_BF810858_data
                0xbf810858       0x14
 .__vector_offset_BF810858_data
                0xbf810858       0x14 c:/program files (x86)/microchip/xc32/v2.20/bin/bin/../../lib/gcc/pic32mx/4.8.3/../../../../pic32mx/lib/./proc/32MZ2048EFG100\vector_offset_init.o

.__vector_offset_BF810840_data
                0xbf810840        0xc
 .__vector_offset_BF810840_data
                0xbf810840        0xc c:/program files (x86)/microchip/xc32/v2.20/bin/bin/../../lib/gcc/pic32mx/4.8.3/../../../../pic32mx/lib/./proc/32MZ2048EFG100\vector_offset_init.o

.__vector_offset_BF810850_data
                0xbf810850        0x4
 .__vector_offset_BF810850_data
                0xbf810850        0x4 c:/program files (x86)/microchip/xc32/v2.20/bin/bin/../../lib/gcc/pic32mx/4.8.3/../../../../pic32mx/lib/./proc/32MZ2048EFG100\vector_offset_init.o

.__vector_offset_BF810894_data
                0xbf810894        0x4
 .__vector_offset_BF810894_data
                0xbf810894        0x4 c:/program files (x86)/microchip/xc32/v2.20/bin/bin/../../lib/gcc/pic32mx/4.8.3/../../../../pic32mx/lib/./proc/32MZ2048EFG100\vector_offset_init.o

.bss            0x800004b8       0xd0
 .bss           0x800004b8       0xd0 build/FFT/production/_ext/1272119167/initialization.o

.data           0x80000588       0xa4
 .data          0x80000588       0xa4 c:/program files (x86)/microchip/xc32/v2.20/bin/bin/../../lib/gcc/pic32mx/4.8.3/../../../../pic32mx/lib/fpu64\libc.a(_iob.o)
                0x80000588                _Files
                0x8000058c                _iob

.bss            0x8000062c       0xa4
 .bss           0x8000062c       0x60 build/FFT/production/_ext/1891070335/drv_usart.o
 .bss           0x8000068c       0x44 c:/program files (x86)/microchip/xc32/v2.20/bin/bin/../../lib/gcc/pic32mx/4.8.3/../../../../pic32mx/lib/fpu64\libc.a(_iob.o)
                0x8000068c                _sobuf
                0x800006ac                _sibuf
                0x800006cc                _outdone

._debug_exception
                0xbfc00480       0x2c
 ._debug_exception
                0xbfc00480       0x2c c:/program files (x86)/microchip/xc32/v2.20/bin/bin/../../lib/gcc/pic32mx/4.8.3/../../../../pic32mx/lib/fpu64\debug-exception-return.o
                0xbfc00480                __DbgExecReturn

.text._vfprintf_cdnopsuxX
                0x9d000270      0xc8c
 .text._vfprintf_cdnopsuxX
                0x9d000270      0xc8c c:/program files (x86)/microchip/xc32/v2.20/bin/bin/../../lib/gcc/pic32mx/4.8.3/../../../../pic32mx/lib/fpu64\libc.a(doprnt_cdnopsuxX.eo)
                0x9d000270                _vfprintf_cdnopsuxX
                0x9d000270                _vfprintf_cdnopuxX

.dinit          0x9d000efc      0x540
 .dinit         0x9d000efc      0x540 data_init

.text           0x9d00143c      0x8bc
 .text          0x9d00143c      0x464 c:/program files (x86)/microchip/xc32/v2.20/bin/bin/../../lib/gcc/pic32mx/4.8.3/fpu64\libgcc.a(_umoddi3.o)
                0x9d00143c                __umoddi3
 .text          0x9d0018a0      0x458 c:/program files (x86)/microchip/xc32/v2.20/bin/bin/../../lib/gcc/pic32mx/4.8.3/fpu64\libgcc.a(_udivdi3.o)
                0x9d0018a0                __udivdi3

.text.TIMER_2_Handler
                0x9d001cf8      0x250
 .text.TIMER_2_Handler
                0x9d001cf8      0x250 build/FFT/production/_ext/1272119167/interrupts.o
                0x9d001cf8                TIMER_2_Handler

.text.TIMER_3_Handler
                0x9d001f48      0x250
 .text.TIMER_3_Handler
                0x9d001f48      0x250 build/FFT/production/_ext/1272119167/interrupts.o
                0x9d001f48                TIMER_3_Handler

.text.UART1_FAULT_Handler
                0x9d002198      0x250
 .text.UART1_FAULT_Handler
                0x9d002198      0x250 build/FFT/production/_ext/1272119167/interrupts.o
                0x9d002198                UART1_FAULT_Handler

.text.UART1_RX_Handler
                0x9d0023e8      0x250
 .text.UART1_RX_Handler
                0x9d0023e8      0x250 build/FFT/production/_ext/1272119167/interrupts.o
                0x9d0023e8                UART1_RX_Handler

.text.UART1_TX_Handler
                0x9d002638      0x250
 .text.UART1_TX_Handler
                0x9d002638      0x250 build/FFT/production/_ext/1272119167/interrupts.o
                0x9d002638                UART1_TX_Handler

.text._DRV_USART_BufferQueueTask
                0x9d002888      0x1c8
 .text._DRV_USART_BufferQueueTask
                0x9d002888      0x1c8 build/FFT/production/_ext/1891070335/drv_usart.o

.text.DRV_USART_Initialize
                0x9d002a50      0x194
 .text.DRV_USART_Initialize
                0x9d002a50      0x194 build/FFT/production/_ext/1891070335/drv_usart.o
                0x9d002a50                DRV_USART_Initialize

.rodata         0x9d002be4      0x158
 .rodata        0x9d002be4      0x158 build/FFT/production/_ext/1272119167/exceptions.o

.text.UART1_SerialSetup
                0x9d002d3c      0x144
 .text.UART1_SerialSetup
                0x9d002d3c      0x144 build/FFT/production/_ext/2109807859/plib_uart1.o
                0x9d002d3c                UART1_SerialSetup

.text.fputc     0x9d002e80      0x144
 .text.fputc    0x9d002e80      0x144 c:/program files (x86)/microchip/xc32/v2.20/bin/bin/../../lib/gcc/pic32mx/4.8.3/../../../../pic32mx/lib/fpu64\libc.a(_fputc_simple.o)
                0x9d002e80                fputc

.text._flsbuf   0x9d002fc4      0x12c
 .text._flsbuf  0x9d002fc4      0x12c c:/program files (x86)/microchip/xc32/v2.20/bin/bin/../../lib/gcc/pic32mx/4.8.3/../../../../pic32mx/lib/fpu64\libc.a(_flsbuf_simple.o)
                0x9d002fc4                _flsbuf

.text.ADCHS_Initialize
                0x9d0030f0      0x114
 .text.ADCHS_Initialize
                0x9d0030f0      0x114 build/FFT/production/_ext/961138470/plib_adchs.o
                0x9d0030f0                ADCHS_Initialize

.text.TMR2InterruptCallback
                0x9d003204      0x10c
 .text.TMR2InterruptCallback
                0x9d003204      0x10c build/FFT/production/_ext/1360937237/neopixel.o
                0x9d003204                TMR2InterruptCallback

.rodata         0x9d003310      0x104
 .rodata        0x9d003310      0x104 c:/program files (x86)/microchip/xc32/v2.20/bin/bin/../../lib/gcc/pic32mx/4.8.3/../../../../pic32mx/lib/fpu64\libc.a(ctype.o)
                0x9d003310                _ctype

.text.UART1_RX_InterruptHandler
                0x9d000010       0xec
 .text.UART1_RX_InterruptHandler
                0x9d000010       0xec build/FFT/production/_ext/2109807859/plib_uart1.o
                0x9d000010                UART1_RX_InterruptHandler

.text.GPIO_Initialize
                0x9d003414       0xe8
 .text.GPIO_Initialize
                0x9d003414       0xe8 build/FFT/production/_ext/2109404916/plib_gpio.o
                0x9d003414                GPIO_Initialize

.text.CLK_Initialize
                0x9d0034fc       0xe0
 .text.CLK_Initialize
                0x9d0034fc       0xe0 build/FFT/production/_ext/1317431971/plib_clk.o
                0x9d0034fc                CLK_Initialize

.text.general_exception
                0x9d0035dc       0xdc
 .text.general_exception
                0x9d0035dc       0xdc c:/program files (x86)/microchip/xc32/v2.20/bin/bin/../../lib/gcc/pic32mx/4.8.3/../../../../pic32mx/lib/fpu64\libpic32.a(general-exception.o)
                0x9d0035dc                _general_exception_context

.text.UART1_TX_InterruptHandler
                0x9d0036b8       0xd8
 .text.UART1_TX_InterruptHandler
                0x9d0036b8       0xd8 build/FFT/production/_ext/2109807859/plib_uart1.o
                0x9d0036b8                UART1_TX_InterruptHandler

.text._cache_err_exception_context
                0x9d003790       0xd8
 .text._cache_err_exception_context
                0x9d003790       0xd8 c:/program files (x86)/microchip/xc32/v2.20/bin/bin/../../lib/gcc/pic32mx/4.8.3/../../../../pic32mx/lib/fpu64\libpic32.a(cache-err-exception.o)
                0x9d003790                _cache_err_exception_context

.text.simple_tlb_refill_context
                0x9d003868       0xd8
 .text.simple_tlb_refill_context
                0x9d003868       0xd8 c:/program files (x86)/microchip/xc32/v2.20/bin/bin/../../lib/gcc/pic32mx/4.8.3/../../../../pic32mx/lib/fpu64\libpic32.a(simple-tlb-refill-exception.o)
                0x9d003868                _simple_tlb_refill_exception_context

.rodata         0x9d003940       0xd0
 .rodata        0x9d003940       0xd0 c:/program files (x86)/microchip/xc32/v2.20/bin/bin/../../lib/gcc/pic32mx/4.8.3/../../../../pic32mx/lib/fpu64\libc.a(doprnt_cdnopsuxX.eo)

.text.SYS_Initialize
                0x9d003a10       0xc4
 .text.SYS_Initialize
                0x9d003a10       0xc4 build/FFT/production/_ext/1272119167/initialization.o
                0x9d003a10                SYS_Initialize

.rodata         0x9d003ad4       0xc0
 .rodata        0x9d003ad4       0xc0 build/FFT/production/_ext/1272119167/initialization.o
                0x9d003ad4                drvUsart0InitData
                0x9d003b0c                drvUSART0InterruptSources
                0x9d003b28                drvUsart0remapError
                0x9d003b34                drvUsart0remapStopBits
                0x9d003b40                drvUsart0remapParity
                0x9d003b58                drvUsart0remapDataWidth
                0x9d003b6c                drvUsart0PlibAPI

.tlb.__pic32_tlb_init_ebi_sqi
                0x9d003b94       0xbc
 .tlb.__pic32_tlb_init_ebi_sqi
                0x9d003b94       0xbc c:/program files (x86)/microchip/xc32/v2.20/bin/bin/../../lib/gcc/pic32mx/4.8.3/../../../../pic32mx/lib/fpu64\libpic32.a(pic32_init_tlb_ebi_sqi.o)
                0x9d003b94                __pic32_tlb_init_ebi_sqi

.text.setupNeopixel
                0x9d003c50       0xac
 .text.setupNeopixel
                0x9d003c50       0xac build/FFT/production/_ext/1360937237/neopixel.o
                0x9d003c50                setupNeopixel

.text.write     0x9d003cfc       0x9c
 .text.write    0x9d003cfc       0x9c c:/program files (x86)/microchip/xc32/v2.20/bin/bin/../../lib/gcc/pic32mx/4.8.3/../../../../pic32mx/lib/fpu64\libpic32.a(write.o)
                0x9d003cfc                write

.text.UART1_ErrorGet
                0x9d003d98       0x88
 .text.UART1_ErrorGet
                0x9d003d98       0x88 build/FFT/production/_ext/2109807859/plib_uart1.o
                0x9d003d98                UART1_ErrorGet

.text.UART1_Initialize
                0x9d003e20       0x84
 .text.UART1_Initialize
                0x9d003e20       0x84 build/FFT/production/_ext/2109807859/plib_uart1.o
                0x9d003e20                UART1_Initialize

.text           0x9d003ea4       0x84
 .text          0x9d003ea4       0x84 c:/program files (x86)/microchip/xc32/v2.20/bin/bin/../../lib/gcc/pic32mx/4.8.3/../../../../pic32mx/lib/fpu64\libpic32.a(pic32_data_init.o)
                0x9d003ea4                __pic32_data_init

.text.UART1_Read
                0x9d003f28       0x80
 .text.UART1_Read
                0x9d003f28       0x80 build/FFT/production/_ext/2109807859/plib_uart1.o
                0x9d003f28                UART1_Read

.text.UART1_Write
                0x9d003fa8       0x7c
 .text.UART1_Write
                0x9d003fa8       0x7c build/FFT/production/_ext/2109807859/plib_uart1.o
                0x9d003fa8                UART1_Write

.text._DRV_USART_ReadSubmit
                0x9d004024       0x74
 .text._DRV_USART_ReadSubmit
                0x9d004024       0x74 build/FFT/production/_ext/1891070335/drv_usart.o

.text._DRV_USART_WriteSubmit
                0x9d004098       0x74
 .text._DRV_USART_WriteSubmit
                0x9d004098       0x74 build/FFT/production/_ext/1891070335/drv_usart.o

.text.testNEO   0x9d000110       0x6c
 .text.testNEO  0x9d000110       0x6c build/FFT/production/_ext/1360937237/neopixel.o
                0x9d000110                testNEO

.text.APP_Tasks
                0x9d000190       0x60
 .text.APP_Tasks
                0x9d000190       0x60 build/FFT/production/_ext/1360937237/app.o
                0x9d000190                APP_Tasks

.text._DRV_USART_RX_PLIB_CallbackHandler
                0x9d00410c       0x54
 .text._DRV_USART_RX_PLIB_CallbackHandler
                0x9d00410c       0x54 build/FFT/production/_ext/1891070335/drv_usart.o

.text.main_entry
                0x9d004160       0x54
 .text.main_entry
                0x9d004160       0x54 C:\Users\Madison\AppData\Local\Temp\ccasagLp.o
                0x9d004194                __crt0_exit

.text.UART1_FAULT_InterruptHandler
                0x9d0041b4       0x4c
 .text.UART1_FAULT_InterruptHandler
                0x9d0041b4       0x4c build/FFT/production/_ext/2109807859/plib_uart1.o
                0x9d0041b4                UART1_FAULT_InterruptHandler

.text._general_exception_handler
                0x9d004200       0x48
 .text._general_exception_handler
                0x9d004200       0x48 build/FFT/production/_ext/1272119167/exceptions.o
                0x9d004200                _general_exception_handler

.text._bootstrap_exception_handler
                0x9d004248       0x48
 .text._bootstrap_exception_handler
                0x9d004248       0x48 c:/program files (x86)/microchip/xc32/v2.20/bin/bin/../../lib/gcc/pic32mx/4.8.3/../../../../pic32mx/lib/fpu64\libpic32.a(default-bootstrap-exception-handler.o)
                0x9d004248                _bootstrap_exception_handler

.text._cache_err_exception_handler
                0x9d004290       0x48
 .text._cache_err_exception_handler
                0x9d004290       0x48 c:/program files (x86)/microchip/xc32/v2.20/bin/bin/../../lib/gcc/pic32mx/4.8.3/../../../../pic32mx/lib/fpu64\libpic32.a(default-cache-err-exception-handler.o)
                0x9d004290                _cache_err_exception_handler

.text._simple_tlb_refill_exception_handler
                0x9d0042d8       0x48
 .text._simple_tlb_refill_exception_handler
                0x9d0042d8       0x48 c:/program files (x86)/microchip/xc32/v2.20/bin/bin/../../lib/gcc/pic32mx/4.8.3/../../../../pic32mx/lib/fpu64\libpic32.a(default-simple-tlb-refill-exception-handler.o)
                0x9d0042d8                _simple_tlb_refill_exception_handler

.text.EVIC_Initialize
                0x9d004320       0x44
 .text.EVIC_Initialize
                0x9d004320       0x44 build/FFT/production/_ext/2109351088/plib_evic.o
                0x9d004320                EVIC_Initialize

.text           0x9d004364       0x44
 .text          0x9d004364       0x44 c:/program files (x86)/microchip/xc32/v2.20/bin/bin/../../lib/gcc/pic32mx/4.8.3/../../../../pic32mx/lib/fpu64\pic32_software_reset.o
                0x9d004364                __pic32_software_reset

.text.TIMER_2_InterruptHandler
                0x9d0043a8       0x40
 .text.TIMER_2_InterruptHandler
                0x9d0043a8       0x40 build/FFT/production/_ext/1317415596/plib_tmr2.o
                0x9d0043a8                TIMER_2_InterruptHandler

.text.TIMER_3_InterruptHandler
                0x9d0043e8       0x40
 .text.TIMER_3_InterruptHandler
                0x9d0043e8       0x40 build/FFT/production/_ext/1317415596/plib_tmr3.o
                0x9d0043e8                TIMER_3_InterruptHandler

.text._printf_cdnopsuxX
                0x9d004428       0x40
 .text._printf_cdnopsuxX
                0x9d004428       0x40 c:/program files (x86)/microchip/xc32/v2.20/bin/bin/../../lib/gcc/pic32mx/4.8.3/../../../../pic32mx/lib/fpu64\libc.a(printf_cdnopsuxX.eo)
                0x9d004428                _printf_cdnopuxX
                0x9d004428                _printf_cdnopsuxX

.text.TMR2_Initialize
                0x9d004468       0x3c
 .text.TMR2_Initialize
                0x9d004468       0x3c build/FFT/production/_ext/1317415596/plib_tmr2.o
                0x9d004468                TMR2_Initialize

.text.TMR3_Initialize
                0x9d0044a4       0x3c
 .text.TMR3_Initialize
                0x9d0044a4       0x3c build/FFT/production/_ext/1317415596/plib_tmr3.o
                0x9d0044a4                TMR3_Initialize

.text._DRV_USART_RemoveTransferObjFromList
                0x9d0044e0       0x38
 .text._DRV_USART_RemoveTransferObjFromList
                0x9d0044e0       0x38 build/FFT/production/_ext/1891070335/drv_usart.o

.text.updateNeoData
                0x9d004518       0x2c
 .text.updateNeoData
                0x9d004518       0x2c build/FFT/production/_ext/1360937237/neopixel.o
                0x9d004518                updateNeoData

.text._mon_putc
                0x9d004544       0x2c
 .text._mon_putc
                0x9d004544       0x2c build/FFT/production/_ext/489647995/xc32_monitor.o
                0x9d004544                _mon_putc

.text.OCMP6_Initialize
                0x9d004570       0x28
 .text.OCMP6_Initialize
                0x9d004570       0x28 build/FFT/production/_ext/2109630876/plib_ocmp6.o
                0x9d004570                OCMP6_Initialize

.text.OCMP4_Initialize
                0x9d004598       0x28
 .text.OCMP4_Initialize
                0x9d004598       0x28 build/FFT/production/_ext/2109630876/plib_ocmp4.o
                0x9d004598                OCMP4_Initialize

.text.OCMP2_Initialize
                0x9d0045c0       0x28
 .text.OCMP2_Initialize
                0x9d0045c0       0x28 build/FFT/production/_ext/2109630876/plib_ocmp2.o
                0x9d0045c0                OCMP2_Initialize

.text.OCMP3_Initialize
                0x9d0045e8       0x28
 .text.OCMP3_Initialize
                0x9d0045e8       0x28 build/FFT/production/_ext/2109630876/plib_ocmp3.o
                0x9d0045e8                OCMP3_Initialize

.text.main      0x9d004610       0x20
 .text.main     0x9d004610       0x20 build/FFT/production/_ext/1360937237/main.o
                0x9d004610                main

.text._DRV_USART_TX_PLIB_CallbackHandler
                0x9d004630       0x20
 .text._DRV_USART_TX_PLIB_CallbackHandler
                0x9d004630       0x20 build/FFT/production/_ext/1891070335/drv_usart.o

.text.APP_Initialize
                0x9d004650       0x1c
 .text.APP_Initialize
                0x9d004650       0x1c build/FFT/production/_ext/1360937237/app.o
                0x9d004650                APP_Initialize

.text.SYS_Tasks
                0x9d00466c       0x1c
 .text.SYS_Tasks
                0x9d00466c       0x1c build/FFT/production/_ext/1272119167/tasks.o
                0x9d00466c                SYS_Tasks

.text           0x9d004688       0x18
 .text          0x9d004688       0x18 c:/program files (x86)/microchip/xc32/v2.20/bin/bin/../../lib/gcc/pic32mx/4.8.3/../../../../pic32mx/lib/fpu64\libpic32.a(default-nmi-handler.o)
                0x9d004688                _nmi_handler

.text.OCMP6_Enable
                0x9d0046a0       0x14
 .text.OCMP6_Enable
                0x9d0046a0       0x14 build/FFT/production/_ext/2109630876/plib_ocmp6.o
                0x9d0046a0                OCMP6_Enable

.text.OCMP4_Enable
                0x9d0046b4       0x14
 .text.OCMP4_Enable
                0x9d0046b4       0x14 build/FFT/production/_ext/2109630876/plib_ocmp4.o
                0x9d0046b4                OCMP4_Enable

.text.OCMP2_Enable
                0x9d0046c8       0x14
 .text.OCMP2_Enable
                0x9d0046c8       0x14 build/FFT/production/_ext/2109630876/plib_ocmp2.o
                0x9d0046c8                OCMP2_Enable

.text.OCMP2_Disable
                0x9d0046dc       0x14
 .text.OCMP2_Disable
                0x9d0046dc       0x14 build/FFT/production/_ext/2109630876/plib_ocmp2.o
                0x9d0046dc                OCMP2_Disable

.text.OCMP3_Enable
                0x9d0046f0       0x14
 .text.OCMP3_Enable
                0x9d0046f0       0x14 build/FFT/production/_ext/2109630876/plib_ocmp3.o
                0x9d0046f0                OCMP3_Enable

.text.UART1_ReadCallbackRegister
                0x9d004704       0x14
 .text.UART1_ReadCallbackRegister
                0x9d004704       0x14 build/FFT/production/_ext/2109807859/plib_uart1.o
                0x9d004704                UART1_ReadCallbackRegister

.text.UART1_WriteCallbackRegister
                0x9d004718       0x14
 .text.UART1_WriteCallbackRegister
                0x9d004718       0x14 build/FFT/production/_ext/2109807859/plib_uart1.o
                0x9d004718                UART1_WriteCallbackRegister

.text.TMR2_Start
                0x9d00472c       0x14
 .text.TMR2_Start
                0x9d00472c       0x14 build/FFT/production/_ext/1317415596/plib_tmr2.o
                0x9d00472c                TMR2_Start

.text.TMR2_Stop
                0x9d004740       0x14
 .text.TMR2_Stop
                0x9d004740       0x14 build/FFT/production/_ext/1317415596/plib_tmr2.o
                0x9d004740                TMR2_Stop

.text.TMR2_InterruptEnable
                0x9d004754       0x14
 .text.TMR2_InterruptEnable
                0x9d004754       0x14 build/FFT/production/_ext/1317415596/plib_tmr2.o
                0x9d004754                TMR2_InterruptEnable

.text.UART1_ReadIsBusy
                0x9d0001f0        0xc
 .text.UART1_ReadIsBusy
                0x9d0001f0        0xc build/FFT/production/_ext/2109807859/plib_uart1.o
                0x9d0001f0                UART1_ReadIsBusy

.text.UART1_ReadCountGet
                0x9d004768        0xc
 .text.UART1_ReadCountGet
                0x9d004768        0xc build/FFT/production/_ext/2109807859/plib_uart1.o
                0x9d004768                UART1_ReadCountGet

.text.UART1_WriteIsBusy
                0x9d004774        0xc
 .text.UART1_WriteIsBusy
                0x9d004774        0xc build/FFT/production/_ext/2109807859/plib_uart1.o
                0x9d004774                UART1_WriteIsBusy

.text.UART1_WriteCountGet
                0x9d004780        0xc
 .text.UART1_WriteCountGet
                0x9d004780        0xc build/FFT/production/_ext/2109807859/plib_uart1.o
                0x9d004780                UART1_WriteCountGet

.text.TMR2_CallbackRegister
                0x9d00478c        0xc
 .text.TMR2_CallbackRegister
                0x9d00478c        0xc build/FFT/production/_ext/1317415596/plib_tmr2.o
                0x9d00478c                TMR2_CallbackRegister

.text.setFFTUpdate
                0x9d004798        0x8
 .text.setFFTUpdate
                0x9d004798        0x8 build/FFT/production/_ext/1360937237/FFT.o
                0x9d004798                setFFTUpdate

.text.SYS_DMA_AddressingModeSetup
                0x9d0047a0        0x8
 .text.SYS_DMA_AddressingModeSetup
                0x9d0047a0        0x8 build/FFT/production/_ext/980732774/sys_dma.o
                0x9d0047a0                SYS_DMA_AddressingModeSetup

.text.SYS_DMA_DataWidthSetup
                0x9d0047a8        0x8
 .text.SYS_DMA_DataWidthSetup
                0x9d0047a8        0x8 build/FFT/production/_ext/980732774/sys_dma.o
                0x9d0047a8                SYS_DMA_DataWidthSetup

.text.SYS_DMA_ChannelTransfer
                0x9d0047b0        0x8
 .text.SYS_DMA_ChannelTransfer
                0x9d0047b0        0x8 build/FFT/production/_ext/980732774/sys_dma.o
                0x9d0047b0                SYS_DMA_ChannelTransfer

.text._on_reset
                0x9d0047b8        0x8
 .text._on_reset
                0x9d0047b8        0x8 c:/program files (x86)/microchip/xc32/v2.20/bin/bin/../../lib/gcc/pic32mx/4.8.3/../../../../pic32mx/lib/fpu64\libpic32.a(default-on-reset.o)
                0x9d0047b8                _on_reset

.text._on_bootstrap
                0x9d0047c0        0x8
 .text._on_bootstrap
                0x9d0047c0        0x8 c:/program files (x86)/microchip/xc32/v2.20/bin/bin/../../lib/gcc/pic32mx/4.8.3/../../../../pic32mx/lib/fpu64\libpic32.a(default-on-bootstrap.o)
                0x9d0047c0                _on_bootstrap
